EXPORTS
    _ZN3TBS11threadDebugEv @1
    _ZN3TBS13dumpBacktraceESsSsb @2
    _ZN3TBS16__tseriesCmdExecERNS_18NotificationWorkerEN4Poco9SharedPtrINS_8ICommandENS2_16ReferenceCounterENS2_13ReleasePolicyIS4_EEEEbb @3
    _ZN3TBS16separateIdentLogESs @4
    _ZN3TBS17ActiveEventObject8activateEv @5
    _ZN3TBS17ActiveEventObject8isActiveEv @6
    _ZN3TBS17ActiveEventObject9passivateEv @7
    _ZN3TBS17ActiveEventObjectC1Ev @8
    _ZN3TBS17ActiveEventObjectC2Ev @9
    _ZN3TBS17ActiveEventObjectD1Ev @10
    _ZN3TBS17ActiveEventObjectD2Ev @11
    _ZN3TBS17DiagnosticsMemory1mE @12 DATA
    _ZN3TBS17DiagnosticsMemory6readerEv @13
    _ZN3TBS17DiagnosticsMemory6writerEv @14
    _ZN3TBS17DiagnosticsMemory8instanceEv @15
    _ZN3TBS17DiagnosticsMemoryC1Ev @16
    _ZN3TBS17DiagnosticsMemoryC2Ev @17
    _ZN3TBS17DiagnosticsMemoryD1Ev @18
    _ZN3TBS17DiagnosticsMemoryD2Ev @19
    _ZN3TBS17NotificationQueue10dequeueOneEv @20
    _ZN3TBS17NotificationQueue19dequeueNotificationEv @21
    _ZN3TBS17NotificationQueue19enqueueNotificationEN4Poco7AutoPtrINS1_12NotificationEEE @22
    _ZN3TBS17NotificationQueue23waitDequeueNotificationEl @23
    _ZN3TBS17NotificationQueue23waitDequeueNotificationEv @24
    _ZN3TBS17NotificationQueue25enqueueUrgentNotificationEN4Poco7AutoPtrINS1_12NotificationEEE @25
    _ZN3TBS17NotificationQueue5clearEv @26
    _ZN3TBS17NotificationQueue9wakeUpAllEv @27
    _ZN3TBS17NotificationQueueC1Ev @28
    _ZN3TBS17NotificationQueueC2Ev @29
    _ZN3TBS17NotificationQueueD1Ev @30
    _ZN3TBS17NotificationQueueD2Ev @31
    _ZN3TBS18NotificationWorker11addObserverERKN4Poco16AbstractObserverE @32
    _ZN3TBS18NotificationWorker14removeObserverERKN4Poco16AbstractObserverE @33
    _ZN3TBS18NotificationWorker16postNotificationEN4Poco7AutoPtrINS1_12NotificationEEE @34
    _ZN3TBS18NotificationWorker19processNotificationEN4Poco7AutoPtrINS1_12NotificationEEE @35
    _ZN3TBS18NotificationWorkerC1ESs @36
    _ZN3TBS18NotificationWorkerC2ESs @37
    _ZN3TBS18NotificationWorkerD0Ev @38
    _ZN3TBS18NotificationWorkerD1Ev @39
    _ZN3TBS18NotificationWorkerD2Ev @40
    _ZN3TBS19CommandNotification12errorMessageEv @41
    _ZN3TBS19CommandNotification3runEv @42
    _ZN3TBS19CommandNotification6failedEv @43
    _ZN3TBS19CommandNotification6passedEv @44
    _ZN3TBS19CommandNotificationC1EN4Poco9SharedPtrINS_8ICommandENS1_16ReferenceCounterENS1_13ReleasePolicyIS3_EEEE @45
    _ZN3TBS19CommandNotificationC2EN4Poco9SharedPtrINS_8ICommandENS1_16ReferenceCounterENS1_13ReleasePolicyIS3_EEEE @46
    _ZN3TBS19CommandNotificationD0Ev @47
    _ZN3TBS19CommandNotificationD1Ev @48
    _ZN3TBS19CommandNotificationD2Ev @49
    _ZN3TBS20NotificationObserver3setEPN4Poco16AbstractObserverE @50
    _ZN3TBS20NotificationObserver5resetEv @51
    _ZN3TBS20NotificationObserverC1Ev @52
    _ZN3TBS20NotificationObserverC2Ev @53
    _ZN3TBS20NotificationObserverD1Ev @54
    _ZN3TBS20NotificationObserverD2Ev @55
    _ZN3TBS21AbstractTimerCallbackC1ERKS0_ @56
    _ZN3TBS21AbstractTimerCallbackC1Ev @57
    _ZN3TBS21AbstractTimerCallbackC2ERKS0_ @58
    _ZN3TBS21AbstractTimerCallbackC2Ev @59
    _ZN3TBS21AbstractTimerCallbackD0Ev @60
    _ZN3TBS21AbstractTimerCallbackD1Ev @61
    _ZN3TBS21AbstractTimerCallbackD2Ev @62
    _ZN3TBS21AbstractTimerCallbackaSERKS0_ @63
    _ZN3TBS21NotificationObservers13addInternallyEPN4Poco16AbstractObserverE @64
    _ZN3TBS21NotificationObservers5clearEv @65
    _ZN3TBS21NotificationObserversC1EN4Poco9SharedPtrINS_18NotificationWorkerENS1_16ReferenceCounterENS1_13ReleasePolicyIS3_EEEE @66
    _ZN3TBS21NotificationObserversC2EN4Poco9SharedPtrINS_18NotificationWorkerENS1_16ReferenceCounterENS1_13ReleasePolicyIS3_EEEE @67
    _ZN3TBS21NotificationObserversD1Ev @68
    _ZN3TBS21NotificationObserversD2Ev @69
    _ZN3TBS23DiagnosticsStatusMemory10cntPointerEv @70
    _ZN3TBS23DiagnosticsStatusMemory10stringDataEi @71
    _ZN3TBS23DiagnosticsStatusMemory1mE @72 DATA
    _ZN3TBS23DiagnosticsStatusMemory4dataEPc @73
    _ZN3TBS23DiagnosticsStatusMemory4sizeEv @74
    _ZN3TBS23DiagnosticsStatusMemory7keyDataEi @75
    _ZN3TBS23DiagnosticsStatusMemory7recordsEv @76
    _ZN3TBS23DiagnosticsStatusMemoryC1EPc @77
    _ZN3TBS23DiagnosticsStatusMemoryC2EPc @78
    _ZN3TBS23DiagnosticsStatusReader18getDiagnosticsInfoEv @79
    _ZN3TBS23DiagnosticsStatusReaderC1EPc @80
    _ZN3TBS23DiagnosticsStatusReaderC2EPc @81
    _ZN3TBS23DiagnosticsStatusWriter11writeStatusESsSs @82
    _ZN3TBS23DiagnosticsStatusWriter11writeThreadESs @83
    _ZN3TBS23DiagnosticsStatusWriter14rebuildIndexesEv @84
    _ZN3TBS23DiagnosticsStatusWriter5clearEv @85
    _ZN3TBS23DiagnosticsStatusWriterC1EPc @86
    _ZN3TBS23DiagnosticsStatusWriterC2EPc @87
    _ZN3TBS23separateBgEnrollmentLogESs @88
    _ZN3TBS25NotificationBasedRunnable10isBgThreadEv @89
    _ZN3TBS25NotificationBasedRunnable19enqueueNotificationEN4Poco7AutoPtrINS1_12NotificationEEE @90
    _ZN3TBS25NotificationBasedRunnable3runEv @91
    _ZN3TBS25NotificationBasedRunnable4stopEv @92
    _ZN3TBS25NotificationBasedRunnable9queueSizeEv @93
    _ZN3TBS25NotificationBasedRunnableC1ESs @94
    _ZN3TBS25NotificationBasedRunnableC2ESs @95
    _ZN3TBS25NotificationBasedRunnableD0Ev @96
    _ZN3TBS25NotificationBasedRunnableD1Ev @97
    _ZN3TBS25NotificationBasedRunnableD2Ev @98
    _ZN3TBS29PrioNotificationBasedRunnable10isBgThreadEv @99
    _ZN3TBS29PrioNotificationBasedRunnable19enqueueNotificationEN4Poco7AutoPtrINS1_12NotificationEEEi @100
    _ZN3TBS29PrioNotificationBasedRunnable3runEv @101
    _ZN3TBS29PrioNotificationBasedRunnable4stopEv @102
    _ZN3TBS29PrioNotificationBasedRunnable9queueSizeEv @103
    _ZN3TBS29PrioNotificationBasedRunnableC1ESs @104
    _ZN3TBS29PrioNotificationBasedRunnableC2ESs @105
    _ZN3TBS29PrioNotificationBasedRunnableD0Ev @106
    _ZN3TBS29PrioNotificationBasedRunnableD1Ev @107
    _ZN3TBS29PrioNotificationBasedRunnableD2Ev @108
    _ZN3TBS4Task4Task2nwEv @109
    _ZN3TBS4Task4Task5startEv @110
    _ZN3TBS4Task4Task6cancelEv @111
    _ZN3TBS4Task4Task6failedESs @112
    _ZN3TBS4Task4Task7getNameEv @113
    _ZN3TBS4Task4Task8finishedEv @114
    _ZN3TBS4Task4TaskC1ESsN4Poco9SharedPtrINS_18NotificationWorkerENS2_16ReferenceCounterENS2_13ReleasePolicyIS4_EEEE @115
    _ZN3TBS4Task4TaskC2ESsN4Poco9SharedPtrINS_18NotificationWorkerENS2_16ReferenceCounterENS2_13ReleasePolicyIS4_EEEE @116
    _ZN3TBS4Task4TaskD0Ev @117
    _ZN3TBS4Task4TaskD1Ev @118
    _ZN3TBS4Task4TaskD2Ev @119
    _ZN3TBS8ICommandC1ESs @120
    _ZN3TBS8ICommandC2ESs @121
    _ZN3TBS8ICommandD0Ev @122
    _ZN3TBS8ICommandD1Ev @123
    _ZN3TBS8ICommandD2Ev @124
    _ZN3TBS8initLogsESsiSs @125
    _ZN3TBS8initLogsESsiSsNS_10LogHistoryE @126
    _ZN3TBS9SafeTimer16setStartIntervalEl @127
    _ZN3TBS9SafeTimer19setPeriodicIntervalEl @128
    _ZN3TBS9SafeTimer3runEv @129
    _ZN3TBS9SafeTimer4stopEv @130
    _ZN3TBS9SafeTimer5startERKNS_21AbstractTimerCallbackE @131
    _ZN3TBS9SafeTimer7restartEl @132
    _ZN3TBS9SafeTimer7restartEv @133
    _ZN3TBS9SafeTimerC1ESsll @134
    _ZN3TBS9SafeTimerC2ESsll @135
    _ZN3TBS9SafeTimerD0Ev @136
    _ZN3TBS9SafeTimerD1Ev @137
    _ZN3TBS9SafeTimerD2Ev @138
    _ZN3TBS9separeLogESsSs @139
    _ZN4Json10FastWriter10writeValueERKNS_5ValueE @140
    _ZN4Json10FastWriter23enableYAMLCompatibilityEv @141
    _ZN4Json10FastWriter5writeERKNS_5ValueE @142
    _ZN4Json10FastWriterC1Ev @143
    _ZN4Json10FastWriterC2Ev @144
    _ZN4Json10FastWriterD0Ev @145
    _ZN4Json10FastWriterD1Ev @146
    _ZN4Json10FastWriterD2Ev @147
    _ZN4Json12StaticStringC1EPKc @148
    _ZN4Json12StaticStringC2EPKc @149
    _ZN4Json12StyledWriter10writeValueERKNS_5ValueE @150
    _ZN4Json12StyledWriter11writeIndentEv @151
    _ZN4Json12StyledWriter12normalizeEOLERKSs @152
    _ZN4Json12StyledWriter14isMultineArrayERKNS_5ValueE @153
    _ZN4Json12StyledWriter15writeArrayValueERKNS_5ValueE @154
    _ZN4Json12StyledWriter15writeWithIndentERKSs @155
    _ZN4Json12StyledWriter18hasCommentForValueERKNS_5ValueE @156
    _ZN4Json12StyledWriter23writeCommentBeforeValueERKNS_5ValueE @157
    _ZN4Json12StyledWriter32writeCommentAfterValueOnSameLineERKNS_5ValueE @158
    _ZN4Json12StyledWriter5writeERKNS_5ValueE @159
    _ZN4Json12StyledWriter6indentEv @160
    _ZN4Json12StyledWriter8unindentEv @161
    _ZN4Json12StyledWriter9pushValueERKSs @162
    _ZN4Json12StyledWriterC1Ev @163
    _ZN4Json12StyledWriterC2Ev @164
    _ZN4Json12StyledWriterD0Ev @165
    _ZN4Json12StyledWriterD1Ev @166
    _ZN4Json12StyledWriterD2Ev @167
    _ZN4Json13valueToStringEb @168
    _ZN4Json13valueToStringEd @169
    _ZN4Json13valueToStringEi @170
    _ZN4Json13valueToStringEj @171
    _ZN4Json18StyledStreamWriter10writeValueERKNS_5ValueE @172
    _ZN4Json18StyledStreamWriter11writeIndentEv @173
    _ZN4Json18StyledStreamWriter12normalizeEOLERKSs @174
    _ZN4Json18StyledStreamWriter14isMultineArrayERKNS_5ValueE @175
    _ZN4Json18StyledStreamWriter15writeArrayValueERKNS_5ValueE @176
    _ZN4Json18StyledStreamWriter15writeWithIndentERKSs @177
    _ZN4Json18StyledStreamWriter18hasCommentForValueERKNS_5ValueE @178
    _ZN4Json18StyledStreamWriter23writeCommentBeforeValueERKNS_5ValueE @179
    _ZN4Json18StyledStreamWriter32writeCommentAfterValueOnSameLineERKNS_5ValueE @180
    _ZN4Json18StyledStreamWriter5writeERSoRKNS_5ValueE @181
    _ZN4Json18StyledStreamWriter6indentEv @182
    _ZN4Json18StyledStreamWriter8unindentEv @183
    _ZN4Json18StyledStreamWriter9pushValueERKSs @184
    _ZN4Json18StyledStreamWriterC1ESs @185
    _ZN4Json18StyledStreamWriterC2ESs @186
    _ZN4Json18StyledStreamWriterD1Ev @187
    _ZN4Json18StyledStreamWriterD2Ev @188
    _ZN4Json19valueToQuotedStringEPKc @189
    _ZN4Json5Value10setCommentEPKcNS_16CommentPlacementE @190
    _ZN4Json5Value10setCommentERKSsNS_16CommentPlacementE @191
    _ZN4Json5Value12removeMemberEPKc @192
    _ZN4Json5Value12removeMemberERKSs @193
    _ZN4Json5Value16resolveReferenceEPKcb @194
    _ZN4Json5Value3endEv @195
    _ZN4Json5Value4nullE @196 DATA
    _ZN4Json5Value4swapERS0_ @197
    _ZN4Json5Value5beginEv @198
    _ZN4Json5Value5clearEv @199
    _ZN4Json5Value6appendERKS0_ @200
    _ZN4Json5Value6maxIntE @201 DATA
    _ZN4Json5Value6minIntE @202 DATA
    _ZN4Json5Value6resizeEj @203
    _ZN4Json5Value7compareERKS0_ @204
    _ZN4Json5Value7maxUIntE @205 DATA
    _ZN4Json5ValueC1ENS_9ValueTypeE @206
    _ZN4Json5ValueC1EPKc @207
    _ZN4Json5ValueC1EPKcS2_ @208
    _ZN4Json5ValueC1ERKNS_12StaticStringE @209
    _ZN4Json5ValueC1ERKS0_ @210
    _ZN4Json5ValueC1ERKSs @211
    _ZN4Json5ValueC1Eb @212
    _ZN4Json5ValueC1Ed @213
    _ZN4Json5ValueC1Ei @214
    _ZN4Json5ValueC1Ej @215
    _ZN4Json5ValueC2ENS_9ValueTypeE @216
    _ZN4Json5ValueC2EPKc @217
    _ZN4Json5ValueC2EPKcS2_ @218
    _ZN4Json5ValueC2ERKNS_12StaticStringE @219
    _ZN4Json5ValueC2ERKS0_ @220
    _ZN4Json5ValueC2ERKSs @221
    _ZN4Json5ValueC2Eb @222
    _ZN4Json5ValueC2Ed @223
    _ZN4Json5ValueC2Ei @224
    _ZN4Json5ValueC2Ej @225
    _ZN4Json5ValueD1Ev @226
    _ZN4Json5ValueD2Ev @227
    _ZN4Json5ValueaSERKS0_ @228
    _ZN4Json5ValueixEPKc @229
    _ZN4Json5ValueixERKNS_12StaticStringE @230
    _ZN4Json5ValueixERKSs @231
    _ZN4Json5ValueixEj @232
    _ZN4Json6Reader10addCommentEPKcS2_NS_16CommentPlacementE @233
    _ZN4Json6Reader10readNumberEv @234
    _ZN4Json6Reader10readObjectERNS0_5TokenE @235
    _ZN4Json6Reader10readStringEv @236
    _ZN4Json6Reader10skipSpacesEv @237
    _ZN4Json6Reader11expectTokenENS0_9TokenTypeERNS0_5TokenEPKc @238
    _ZN4Json6Reader11getNextCharEv @239
    _ZN4Json6Reader11readCommentEv @240
    _ZN4Json6Reader12currentValueEv @241
    _ZN4Json6Reader12decodeDoubleERNS0_5TokenE @242
    _ZN4Json6Reader12decodeNumberERNS0_5TokenE @243
    _ZN4Json6Reader12decodeStringERNS0_5TokenE @244
    _ZN4Json6Reader12decodeStringERNS0_5TokenERSs @245
    _ZN4Json6Reader16recoverFromErrorENS0_9TokenTypeE @246
    _ZN4Json6Reader17readCStyleCommentEv @247
    _ZN4Json6Reader17skipCommentTokensERNS0_5TokenE @248
    _ZN4Json6Reader18addErrorAndRecoverERKSsRNS0_5TokenENS0_9TokenTypeE @249
    _ZN4Json6Reader19readCppStyleCommentEv @250
    _ZN4Json6Reader22decodeUnicodeCodePointERNS0_5TokenERPKcS4_Rj @251
    _ZN4Json6Reader27decodeUnicodeEscapeSequenceERNS0_5TokenERPKcS4_Rj @252
    _ZN4Json6Reader5matchEPKci @253
    _ZN4Json6Reader5parseEPKcS2_RNS_5ValueEb @254
    _ZN4Json6Reader5parseERKSsRNS_5ValueEb @255
    _ZN4Json6Reader5parseERSiRNS_5ValueEb @256
    _ZN4Json6Reader8addErrorERKSsRNS0_5TokenEPKc @257
    _ZN4Json6Reader9readArrayERNS0_5TokenE @258
    _ZN4Json6Reader9readTokenERNS0_5TokenE @259
    _ZN4Json6Reader9readValueEv @260
    _ZN4Json6ReaderC1ERKNS_8FeaturesE @261
    _ZN4Json6ReaderC1Ev @262
    _ZN4Json6ReaderC2ERKNS_8FeaturesE @263
    _ZN4Json6ReaderC2Ev @264
    _ZN4Json6WriterD0Ev @265
    _ZN4Json6WriterD1Ev @266
    _ZN4Json6WriterD2Ev @267
    _ZN4Json8Features10strictModeEv @268
    _ZN4Json8Features3allEv @269
    _ZN4Json8FeaturesC1Ev @270
    _ZN4Json8FeaturesC2Ev @271
    _ZNK3TBS17NotificationQueue14hasIdleThreadsEv @272
    _ZNK3TBS17NotificationQueue4sizeEv @273
    _ZNK3TBS17NotificationQueue5emptyEv @274
    _ZNK3TBS19CommandNotification4nameEv @275
    _ZNK3TBS8ICommand7getNameEv @276
    _ZNK3TBS9SafeTimer16getStartIntervalEv @277
    _ZNK3TBS9SafeTimer19getPeriodicIntervalEv @278
    _ZNK3TBS9SafeTimer7skippedEv @279
    _ZNK3TBS9SafeTimer9isRunningEv @280
    _ZNK4Json12StaticString5c_strEv @281
    _ZNK4Json12StaticStringcvPKcEv @282
    _ZNK4Json5Value10getCommentENS_16CommentPlacementE @283
    _ZNK4Json5Value10hasCommentENS_16CommentPlacementE @284
    _ZNK4Json5Value10isIntegralEv @285
    _ZNK4Json5Value12isValidIndexEj @286
    _ZNK4Json5Value14getMemberNamesEv @287
    _ZNK4Json5Value14toStyledStringEv @288
    _ZNK4Json5Value15isConvertibleToENS_9ValueTypeE @289
    _ZNK4Json5Value3endEv @290
    _ZNK4Json5Value3getEPKcRKS0_ @291
    _ZNK4Json5Value3getERKSsRKS0_ @292
    _ZNK4Json5Value3getEjRKS0_ @293
    _ZNK4Json5Value4sizeEv @294
    _ZNK4Json5Value4typeEv @295
    _ZNK4Json5Value5asIntEv @296
    _ZNK4Json5Value5beginEv @297
    _ZNK4Json5Value5emptyEv @298
    _ZNK4Json5Value5isIntEv @299
    _ZNK4Json5Value6asBoolEv @300
    _ZNK4Json5Value6asUIntEv @301
    _ZNK4Json5Value6isBoolEv @302
    _ZNK4Json5Value6isNullEv @303
    _ZNK4Json5Value6isUIntEv @304
    _ZNK4Json5Value7isArrayEv @305
    _ZNK4Json5Value8asDoubleEv @306
    _ZNK4Json5Value8asStringEv @307
    _ZNK4Json5Value8isDoubleEv @308
    _ZNK4Json5Value8isMemberEPKc @309
    _ZNK4Json5Value8isMemberERKSs @310
    _ZNK4Json5Value8isObjectEv @311
    _ZNK4Json5Value8isStringEv @312
    _ZNK4Json5Value9asCStringEv @313
    _ZNK4Json5Value9isNumericEv @314
    _ZNK4Json5ValueeqERKS0_ @315
    _ZNK4Json5ValuegeERKS0_ @316
    _ZNK4Json5ValuegtERKS0_ @317
    _ZNK4Json5ValueixEPKc @318
    _ZNK4Json5ValueixERKSs @319
    _ZNK4Json5ValueixEj @320
    _ZNK4Json5ValueleERKS0_ @321
    _ZNK4Json5ValueltERKS0_ @322
    _ZNK4Json5ValueneERKS0_ @323
    _ZNK4Json5ValuentEv @324
    _ZNK4Json6Reader24getFormatedErrorMessagesEv @325
    _ZNK4Json6Reader24getLocationLineAndColumnEPKc @326
    _ZNK4Json6Reader24getLocationLineAndColumnEPKcRiS3_ @327
    _ZTVN3TBS18NotificationWorkerE @328 DATA
    _ZTVN3TBS19CommandNotificationE @329 DATA
    _ZTVN3TBS21AbstractTimerCallbackE @330 DATA
    _ZTVN3TBS25NotificationBasedRunnableE @331 DATA
    _ZTVN3TBS29PrioNotificationBasedRunnableE @332 DATA
    _ZTVN3TBS4Task4TaskE @333 DATA
    _ZTVN3TBS8ICommandE @334 DATA
    _ZTVN3TBS9SafeTimerE @335 DATA
    _ZTVN4Json10FastWriterE @336 DATA
    _ZTVN4Json12StyledWriterE @337 DATA
    _ZTVN4Json6WriterE @338 DATA

IMPORTS

    libPocoFoundation.dll._ZGVZNK4Poco20DynamicAnyHolderImplISsE7convertERbE12VAL_INTFALSE
    libPocoFoundation.dll._ZGVZNK4Poco20DynamicAnyHolderImplISsE7convertERbE9VAL_FALSE
    libPocoFoundation.dll._ZN4Poco10DynamicAny5emptyEv
    libPocoFoundation.dll._ZN4Poco10DynamicAnyC1EPKc
    libPocoFoundation.dll._ZN4Poco10DynamicAnyC1ERKS0_
    libPocoFoundation.dll._ZN4Poco10DynamicAnyC1Ev
    libPocoFoundation.dll._ZN4Poco10DynamicAnyC2EPKc
    libPocoFoundation.dll._ZN4Poco10DynamicAnyC2ERKS0_
    libPocoFoundation.dll._ZN4Poco10DynamicAnyC2Ev
    libPocoFoundation.dll._ZN4Poco10DynamicAnyD1Ev
    libPocoFoundation.dll._ZN4Poco10DynamicAnyD2Ev
    libPocoFoundation.dll._ZN4Poco10DynamicAnyaSERKS0_
    libPocoFoundation.dll._ZN4Poco10DynamicAnydVERKS0_
    libPocoFoundation.dll._ZN4Poco10DynamicAnymIERKS0_
    libPocoFoundation.dll._ZN4Poco10DynamicAnymLERKS0_
    libPocoFoundation.dll._ZN4Poco10DynamicAnymmEi
    libPocoFoundation.dll._ZN4Poco10DynamicAnymmEv
    libPocoFoundation.dll._ZN4Poco10DynamicAnypLERKS0_
    libPocoFoundation.dll._ZN4Poco10DynamicAnyppEi
    libPocoFoundation.dll._ZN4Poco10DynamicAnyppEv
    libPocoFoundation.dll._ZN4Poco10FileHandleD1Ev
    libPocoFoundation.dll._ZN4Poco10FileStreamC1ERKSsSt13_Ios_Openmode
    libPocoFoundation.dll._ZN4Poco10FileStreamC1Ev
    libPocoFoundation.dll._ZN4Poco10FileStreamC2ERKSsSt13_Ios_Openmode
    libPocoFoundation.dll._ZN4Poco10FileStreamC2Ev
    libPocoFoundation.dll._ZN4Poco10FileStreamD0Ev
    libPocoFoundation.dll._ZN4Poco10FileStreamD1Ev
    libPocoFoundation.dll._ZN4Poco10FileStreamD2Ev
    libPocoFoundation.dll._ZN4Poco10LineEnding10NEWLINE_CRE
    libPocoFoundation.dll._ZN4Poco10LineEnding10NEWLINE_LFE
    libPocoFoundation.dll._ZN4Poco10LineEnding12NEWLINE_CRLFE
    libPocoFoundation.dll._ZN4Poco10LineEnding15NEWLINE_DEFAULTE
    libPocoFoundation.dll._ZN4Poco10MemoryPool3getEv
    libPocoFoundation.dll._ZN4Poco10MemoryPool7releaseEPv
    libPocoFoundation.dll._ZN4Poco10MemoryPoolC1Ejii
    libPocoFoundation.dll._ZN4Poco10MemoryPoolC2Ejii
    libPocoFoundation.dll._ZN4Poco10MemoryPoolD1Ev
    libPocoFoundation.dll._ZN4Poco10MemoryPoolD2Ev
    libPocoFoundation.dll._ZN4Poco10NamedEventC1ERKSs
    libPocoFoundation.dll._ZN4Poco10NamedEventC2ERKSs
    libPocoFoundation.dll._ZN4Poco10NamedEventD1Ev
    libPocoFoundation.dll._ZN4Poco10NamedEventD2Ev
    libPocoFoundation.dll._ZN4Poco10NamedMutexC1ERKSs
    libPocoFoundation.dll._ZN4Poco10NamedMutexC2ERKSs
    libPocoFoundation.dll._ZN4Poco10NamedMutexD1Ev
    libPocoFoundation.dll._ZN4Poco10NamedMutexD2Ev
    libPocoFoundation.dll._ZN4Poco10RWLockImpl10unlockImplEv
    libPocoFoundation.dll._ZN4Poco10RWLockImpl12readLockImplEv
    libPocoFoundation.dll._ZN4Poco10RWLockImpl13writeLockImplEv
    libPocoFoundation.dll._ZN4Poco10RWLockImpl15tryReadLockImplEv
    libPocoFoundation.dll._ZN4Poco10RWLockImpl15tryReadLockOnceEv
    libPocoFoundation.dll._ZN4Poco10RWLockImpl16tryWriteLockImplEv
    libPocoFoundation.dll._ZN4Poco10RWLockImplC1Ev
    libPocoFoundation.dll._ZN4Poco10RWLockImplC2Ev
    libPocoFoundation.dll._ZN4Poco10RWLockImplD1Ev
    libPocoFoundation.dll._ZN4Poco10RWLockImplD2Ev
    libPocoFoundation.dll._ZN4Poco10RefAnyCastISsEERKT_RKNS_3AnyE
    libPocoFoundation.dll._ZN4Poco10SHA1Engine10updateImplEPKvj
    libPocoFoundation.dll._ZN4Poco10SHA1Engine5resetEv
    libPocoFoundation.dll._ZN4Poco10SHA1Engine6digestEv
    libPocoFoundation.dll._ZN4Poco10SHA1Engine9transformEv
    libPocoFoundation.dll._ZN4Poco10SHA1EngineC1Ev
    libPocoFoundation.dll._ZN4Poco10SHA1EngineC2Ev
    libPocoFoundation.dll._ZN4Poco10SHA1EngineD0Ev
    libPocoFoundation.dll._ZN4Poco10SHA1EngineD1Ev
    libPocoFoundation.dll._ZN4Poco10SHA1EngineD2Ev
    libPocoFoundation.dll._ZN4Poco10ScopedLockINS_5MutexEED1Ev
    libPocoFoundation.dll._ZN4Poco10ScopedLockINS_9FastMutexEED1Ev
    libPocoFoundation.dll._ZN4Poco10ThreadImpl10createImplEPFjPvES1_
    libPocoFoundation.dll._ZN4Poco10ThreadImpl11currentImplEv
    libPocoFoundation.dll._ZN4Poco10ThreadImpl13callableEntryEPv@4
    libPocoFoundation.dll._ZN4Poco10ThreadImpl13runnableEntryEPv@4
    libPocoFoundation.dll._ZN4Poco10ThreadImpl13threadCleanupEv
    libPocoFoundation.dll._ZN4Poco10ThreadImpl14currentTidImplEv
    libPocoFoundation.dll._ZN4Poco10ThreadImpl15setPriorityImplEi
    libPocoFoundation.dll._ZN4Poco10ThreadImpl17setOSPriorityImplEi
    libPocoFoundation.dll._ZN4Poco10ThreadImpl20_currentThreadHolderE
    libPocoFoundation.dll._ZN4Poco10ThreadImpl8joinImplEl
    libPocoFoundation.dll._ZN4Poco10ThreadImpl8joinImplEv
    libPocoFoundation.dll._ZN4Poco10ThreadImpl9startImplEPFvPvES1_
    libPocoFoundation.dll._ZN4Poco10ThreadImpl9startImplERNS_8RunnableE
    libPocoFoundation.dll._ZN4Poco10ThreadImplC1Ev
    libPocoFoundation.dll._ZN4Poco10ThreadImplC2Ev
    libPocoFoundation.dll._ZN4Poco10ThreadImplD1Ev
    libPocoFoundation.dll._ZN4Poco10ThreadImplD2Ev
    libPocoFoundation.dll._ZN4Poco10ThreadPool11addCapacityEi
    libPocoFoundation.dll._ZN4Poco10ThreadPool11defaultPoolEv
    libPocoFoundation.dll._ZN4Poco10ThreadPool12createThreadEv
    libPocoFoundation.dll._ZN4Poco10ThreadPool17startWithPriorityENS_6Thread8PriorityERNS_8RunnableE
    libPocoFoundation.dll._ZN4Poco10ThreadPool17startWithPriorityENS_6Thread8PriorityERNS_8RunnableERKSs
    libPocoFoundation.dll._ZN4Poco10ThreadPool5startERNS_8RunnableE
    libPocoFoundation.dll._ZN4Poco10ThreadPool5startERNS_8RunnableERKSs
    libPocoFoundation.dll._ZN4Poco10ThreadPool7collectEv
    libPocoFoundation.dll._ZN4Poco10ThreadPool7joinAllEv
    libPocoFoundation.dll._ZN4Poco10ThreadPool7stopAllEv
    libPocoFoundation.dll._ZN4Poco10ThreadPool9getThreadEv
    libPocoFoundation.dll._ZN4Poco10ThreadPool9housekeepEv
    libPocoFoundation.dll._ZN4Poco10ThreadPoolC1ERKSsiiii
    libPocoFoundation.dll._ZN4Poco10ThreadPoolC1Eiiii
    libPocoFoundation.dll._ZN4Poco10ThreadPoolC2ERKSsiiii
    libPocoFoundation.dll._ZN4Poco10ThreadPoolC2Eiiii
    libPocoFoundation.dll._ZN4Poco10ThreadPoolD1Ev
    libPocoFoundation.dll._ZN4Poco10ThreadPoolD2Ev
    libPocoFoundation.dll._ZN4Poco11CountingIOS20setCurrentLineNumberEi
    libPocoFoundation.dll._ZN4Poco11CountingIOS5rdbufEv
    libPocoFoundation.dll._ZN4Poco11CountingIOS5resetEv
    libPocoFoundation.dll._ZN4Poco11CountingIOSC1ERSi
    libPocoFoundation.dll._ZN4Poco11CountingIOSC1ERSo
    libPocoFoundation.dll._ZN4Poco11CountingIOSC1Ev
    libPocoFoundation.dll._ZN4Poco11CountingIOSC2ERSi
    libPocoFoundation.dll._ZN4Poco11CountingIOSC2ERSo
    libPocoFoundation.dll._ZN4Poco11CountingIOSC2Ev
    libPocoFoundation.dll._ZN4Poco11CountingIOSD0Ev
    libPocoFoundation.dll._ZN4Poco11CountingIOSD1Ev
    libPocoFoundation.dll._ZN4Poco11CountingIOSD2Ev
    libPocoFoundation.dll._ZN4Poco11Environment13osDisplayNameEv
    libPocoFoundation.dll._ZN4Poco11Environment14libraryVersionEv
    libPocoFoundation.dll._ZN4Poco11Environment14osArchitectureEv
    libPocoFoundation.dll._ZN4Poco11Environment14processorCountEv
    libPocoFoundation.dll._ZN4Poco11Environment3getERKSs
    libPocoFoundation.dll._ZN4Poco11Environment3getERKSsS2_
    libPocoFoundation.dll._ZN4Poco11Environment3hasERKSs
    libPocoFoundation.dll._ZN4Poco11Environment3setERKSsS2_
    libPocoFoundation.dll._ZN4Poco11Environment6nodeIdERA6_h
    libPocoFoundation.dll._ZN4Poco11Environment6nodeIdEv
    libPocoFoundation.dll._ZN4Poco11Environment6osNameEv
    libPocoFoundation.dll._ZN4Poco11Environment8nodeNameEv
    libPocoFoundation.dll._ZN4Poco11Environment9osVersionEv
    libPocoFoundation.dll._ZN4Poco11FileChannel10PROP_TIMESE
    libPocoFoundation.dll._ZN4Poco11FileChannel10setArchiveERKSs
    libPocoFoundation.dll._ZN4Poco11FileChannel11setCompressERKSs
    libPocoFoundation.dll._ZN4Poco11FileChannel11setPropertyERKSsS2_
    libPocoFoundation.dll._ZN4Poco11FileChannel11setPurgeAgeERKSs
    libPocoFoundation.dll._ZN4Poco11FileChannel11setRotationERKSs
    libPocoFoundation.dll._ZN4Poco11FileChannel12PROP_ARCHIVEE
    libPocoFoundation.dll._ZN4Poco11FileChannel13PROP_COMPRESSE
    libPocoFoundation.dll._ZN4Poco11FileChannel13PROP_PURGEAGEE
    libPocoFoundation.dll._ZN4Poco11FileChannel13PROP_ROTATIONE
    libPocoFoundation.dll._ZN4Poco11FileChannel13setPurgeCountERKSs
    libPocoFoundation.dll._ZN4Poco11FileChannel15PROP_PURGECOUNTE
    libPocoFoundation.dll._ZN4Poco11FileChannel3logERKNS_7MessageE
    libPocoFoundation.dll._ZN4Poco11FileChannel4openEv
    libPocoFoundation.dll._ZN4Poco11FileChannel5closeEv
    libPocoFoundation.dll._ZN4Poco11FileChannel5purgeEv
    libPocoFoundation.dll._ZN4Poco11FileChannel9PROP_PATHE
    libPocoFoundation.dll._ZN4Poco11FileChannelC1ERKSs
    libPocoFoundation.dll._ZN4Poco11FileChannelC1Ev
    libPocoFoundation.dll._ZN4Poco11FileChannelC2ERKSs
    libPocoFoundation.dll._ZN4Poco11FileChannelC2Ev
    libPocoFoundation.dll._ZN4Poco11FileChannelD0Ev
    libPocoFoundation.dll._ZN4Poco11FileChannelD1Ev
    libPocoFoundation.dll._ZN4Poco11FileChannelD2Ev
    libPocoFoundation.dll._ZN4Poco11IOExceptionC1ERKS0_
    libPocoFoundation.dll._ZN4Poco11IOExceptionC1ERKSsRKNS_9ExceptionEi
    libPocoFoundation.dll._ZN4Poco11IOExceptionC1ERKSsS2_i
    libPocoFoundation.dll._ZN4Poco11IOExceptionC1ERKSsi
    libPocoFoundation.dll._ZN4Poco11IOExceptionC1Ei
    libPocoFoundation.dll._ZN4Poco11IOExceptionC2ERKS0_
    libPocoFoundation.dll._ZN4Poco11IOExceptionC2ERKSsRKNS_9ExceptionEi
    libPocoFoundation.dll._ZN4Poco11IOExceptionC2ERKSsS2_i
    libPocoFoundation.dll._ZN4Poco11IOExceptionC2ERKSsi
    libPocoFoundation.dll._ZN4Poco11IOExceptionC2Ei
    libPocoFoundation.dll._ZN4Poco11IOExceptionD0Ev
    libPocoFoundation.dll._ZN4Poco11IOExceptionD1Ev
    libPocoFoundation.dll._ZN4Poco11IOExceptionD2Ev
    libPocoFoundation.dll._ZN4Poco11IOExceptionaSERKS0_
    libPocoFoundation.dll._ZN4Poco11LogFileImpl10createFileEv
    libPocoFoundation.dll._ZN4Poco11LogFileImpl9writeImplERKSs
    libPocoFoundation.dll._ZN4Poco11LogFileImplC1ERKSs
    libPocoFoundation.dll._ZN4Poco11LogFileImplC2ERKSs
    libPocoFoundation.dll._ZN4Poco11LogFileImplD1Ev
    libPocoFoundation.dll._ZN4Poco11LogFileImplD2Ev
    libPocoFoundation.dll._ZN4Poco11NullChannel11setPropertyERKSsS2_
    libPocoFoundation.dll._ZN4Poco11NullChannel3logERKNS_7MessageE
    libPocoFoundation.dll._ZN4Poco11NullChannelC1Ev
    libPocoFoundation.dll._ZN4Poco11NullChannelC2Ev
    libPocoFoundation.dll._ZN4Poco11NullChannelD0Ev
    libPocoFoundation.dll._ZN4Poco11NullChannelD1Ev
    libPocoFoundation.dll._ZN4Poco11NullChannelD2Ev
    libPocoFoundation.dll._ZN4Poco11ProcessImpl10launchImplERKSsRKSt6vectorISsSaISsEEPNS_4PipeES9_S9_
    libPocoFoundation.dll._ZN4Poco11ProcessImpl20terminationEventNameEj
    libPocoFoundation.dll._ZN4Poco11ProcessImpl22requestTerminationImplEj
    libPocoFoundation.dll._ZN4Poco11ProcessImpl6idImplEv
    libPocoFoundation.dll._ZN4Poco11ProcessImpl8killImplERKNS_17ProcessHandleImplE
    libPocoFoundation.dll._ZN4Poco11ProcessImpl8killImplEj
    libPocoFoundation.dll._ZN4Poco11ProcessImpl9timesImplERlS1_
    libPocoFoundation.dll._ZN4Poco11TaskManager10taskFailedEPNS_4TaskERKNS_9ExceptionE
    libPocoFoundation.dll._ZN4Poco11TaskManager11addObserverERKNS_16AbstractObserverE
    libPocoFoundation.dll._ZN4Poco11TaskManager11taskStartedEPNS_4TaskE
    libPocoFoundation.dll._ZN4Poco11TaskManager12taskFinishedEPNS_4TaskE
    libPocoFoundation.dll._ZN4Poco11TaskManager12taskProgressEPNS_4TaskEf
    libPocoFoundation.dll._ZN4Poco11TaskManager13taskCancelledEPNS_4TaskE
    libPocoFoundation.dll._ZN4Poco11TaskManager14removeObserverERKNS_16AbstractObserverE
    libPocoFoundation.dll._ZN4Poco11TaskManager16postNotificationEPNS_12NotificationE
    libPocoFoundation.dll._ZN4Poco11TaskManager34MIN_PROGRESS_NOTIFICATION_INTERVALE
    libPocoFoundation.dll._ZN4Poco11TaskManager5startEPNS_4TaskE
    libPocoFoundation.dll._ZN4Poco11TaskManager7joinAllEv
    libPocoFoundation.dll._ZN4Poco11TaskManager9cancelAllEv
    libPocoFoundation.dll._ZN4Poco11TaskManagerC1ERNS_10ThreadPoolE
    libPocoFoundation.dll._ZN4Poco11TaskManagerC1Ev
    libPocoFoundation.dll._ZN4Poco11TaskManagerC2ERNS_10ThreadPoolE
    libPocoFoundation.dll._ZN4Poco11TaskManagerC2Ev
    libPocoFoundation.dll._ZN4Poco11TaskManagerD1Ev
    libPocoFoundation.dll._ZN4Poco11TaskManagerD2Ev
    libPocoFoundation.dll._ZN4Poco12ActiveMethodINS_4VoidESsNS_17ArchiveCompressorENS_13ActiveStarterINS_16ActiveDispatcherEEEEC1EPS2_MS2_FS1_RKSsE
    libPocoFoundation.dll._ZN4Poco12ActiveResultINS_4VoidEED1Ev
    libPocoFoundation.dll._ZN4Poco12AsyncChannel10setChannelEPNS_7ChannelE
    libPocoFoundation.dll._ZN4Poco12AsyncChannel11setPriorityERKSs
    libPocoFoundation.dll._ZN4Poco12AsyncChannel11setPropertyERKSsS2_
    libPocoFoundation.dll._ZN4Poco12AsyncChannel3logERKNS_7MessageE
    libPocoFoundation.dll._ZN4Poco12AsyncChannel3runEv
    libPocoFoundation.dll._ZN4Poco12AsyncChannel4openEv
    libPocoFoundation.dll._ZN4Poco12AsyncChannel5closeEv
    libPocoFoundation.dll._ZN4Poco12AsyncChannelC1EPNS_7ChannelENS_6Thread8PriorityE
    libPocoFoundation.dll._ZN4Poco12AsyncChannelC2EPNS_7ChannelENS_6Thread8PriorityE
    libPocoFoundation.dll._ZN4Poco12AsyncChannelD0Ev
    libPocoFoundation.dll._ZN4Poco12AsyncChannelD1Ev
    libPocoFoundation.dll._ZN4Poco12AsyncChannelD2Ev
    libPocoFoundation.dll._ZN4Poco12BinaryReader15read7BitEncodedERj
    libPocoFoundation.dll._ZN4Poco12BinaryReader15read7BitEncodedERy
    libPocoFoundation.dll._ZN4Poco12BinaryReader7readBOMEv
    libPocoFoundation.dll._ZN4Poco12BinaryReader7readRawEPci
    libPocoFoundation.dll._ZN4Poco12BinaryReader7readRawEiRSs
    libPocoFoundation.dll._ZN4Poco12BinaryReaderC1ERSiNS0_15StreamByteOrderE
    libPocoFoundation.dll._ZN4Poco12BinaryReaderC1ERSiRNS_12TextEncodingENS0_15StreamByteOrderE
    libPocoFoundation.dll._ZN4Poco12BinaryReaderC2ERSiNS0_15StreamByteOrderE
    libPocoFoundation.dll._ZN4Poco12BinaryReaderC2ERSiRNS_12TextEncodingENS0_15StreamByteOrderE
    libPocoFoundation.dll._ZN4Poco12BinaryReaderD1Ev
    libPocoFoundation.dll._ZN4Poco12BinaryReaderD2Ev
    libPocoFoundation.dll._ZN4Poco12BinaryReaderrsERSs
    libPocoFoundation.dll._ZN4Poco12BinaryReaderrsERa
    libPocoFoundation.dll._ZN4Poco12BinaryReaderrsERb
    libPocoFoundation.dll._ZN4Poco12BinaryReaderrsERc
    libPocoFoundation.dll._ZN4Poco12BinaryReaderrsERd
    libPocoFoundation.dll._ZN4Poco12BinaryReaderrsERf
    libPocoFoundation.dll._ZN4Poco12BinaryReaderrsERh
    libPocoFoundation.dll._ZN4Poco12BinaryReaderrsERi
    libPocoFoundation.dll._ZN4Poco12BinaryReaderrsERj
    libPocoFoundation.dll._ZN4Poco12BinaryReaderrsERl
    libPocoFoundation.dll._ZN4Poco12BinaryReaderrsERm
    libPocoFoundation.dll._ZN4Poco12BinaryReaderrsERs
    libPocoFoundation.dll._ZN4Poco12BinaryReaderrsERt
    libPocoFoundation.dll._ZN4Poco12BinaryReaderrsERx
    libPocoFoundation.dll._ZN4Poco12BinaryReaderrsERy
    libPocoFoundation.dll._ZN4Poco12BinaryWriter16write7BitEncodedEj
    libPocoFoundation.dll._ZN4Poco12BinaryWriter16write7BitEncodedEy
    libPocoFoundation.dll._ZN4Poco12BinaryWriter5flushEv
    libPocoFoundation.dll._ZN4Poco12BinaryWriter8writeBOMEv
    libPocoFoundation.dll._ZN4Poco12BinaryWriter8writeRawEPKci
    libPocoFoundation.dll._ZN4Poco12BinaryWriter8writeRawERKSs
    libPocoFoundation.dll._ZN4Poco12BinaryWriterC1ERSoNS0_15StreamByteOrderE
    libPocoFoundation.dll._ZN4Poco12BinaryWriterC1ERSoRNS_12TextEncodingENS0_15StreamByteOrderE
    libPocoFoundation.dll._ZN4Poco12BinaryWriterC2ERSoNS0_15StreamByteOrderE
    libPocoFoundation.dll._ZN4Poco12BinaryWriterC2ERSoRNS_12TextEncodingENS0_15StreamByteOrderE
    libPocoFoundation.dll._ZN4Poco12BinaryWriterD1Ev
    libPocoFoundation.dll._ZN4Poco12BinaryWriterD2Ev
    libPocoFoundation.dll._ZN4Poco12BinaryWriterlsEPKc
    libPocoFoundation.dll._ZN4Poco12BinaryWriterlsERKSs
    libPocoFoundation.dll._ZN4Poco12BinaryWriterlsEa
    libPocoFoundation.dll._ZN4Poco12BinaryWriterlsEb
    libPocoFoundation.dll._ZN4Poco12BinaryWriterlsEc
    libPocoFoundation.dll._ZN4Poco12BinaryWriterlsEd
    libPocoFoundation.dll._ZN4Poco12BinaryWriterlsEf
    libPocoFoundation.dll._ZN4Poco12BinaryWriterlsEh
    libPocoFoundation.dll._ZN4Poco12BinaryWriterlsEi
    libPocoFoundation.dll._ZN4Poco12BinaryWriterlsEj
    libPocoFoundation.dll._ZN4Poco12BinaryWriterlsEl
    libPocoFoundation.dll._ZN4Poco12BinaryWriterlsEm
    libPocoFoundation.dll._ZN4Poco12BinaryWriterlsEs
    libPocoFoundation.dll._ZN4Poco12BinaryWriterlsEt
    libPocoFoundation.dll._ZN4Poco12BinaryWriterlsEx
    libPocoFoundation.dll._ZN4Poco12BinaryWriterlsEy
    libPocoFoundation.dll._ZN4Poco12ConfigurableC1Ev
    libPocoFoundation.dll._ZN4Poco12ConfigurableC2Ev
    libPocoFoundation.dll._ZN4Poco12ConfigurableD0Ev
    libPocoFoundation.dll._ZN4Poco12ConfigurableD1Ev
    libPocoFoundation.dll._ZN4Poco12ConfigurableD2Ev
    libPocoFoundation.dll._ZN4Poco12DeflatingIOS5rdbufEv
    libPocoFoundation.dll._ZN4Poco12DeflatingIOSC1ERSiNS_18DeflatingStreamBuf10StreamTypeEi
    libPocoFoundation.dll._ZN4Poco12DeflatingIOSC1ERSiii
    libPocoFoundation.dll._ZN4Poco12DeflatingIOSC1ERSoNS_18DeflatingStreamBuf10StreamTypeEi
    libPocoFoundation.dll._ZN4Poco12DeflatingIOSC1ERSoii
    libPocoFoundation.dll._ZN4Poco12DeflatingIOSC2ERSiNS_18DeflatingStreamBuf10StreamTypeEi
    libPocoFoundation.dll._ZN4Poco12DeflatingIOSC2ERSiii
    libPocoFoundation.dll._ZN4Poco12DeflatingIOSC2ERSoNS_18DeflatingStreamBuf10StreamTypeEi
    libPocoFoundation.dll._ZN4Poco12DeflatingIOSC2ERSoii
    libPocoFoundation.dll._ZN4Poco12DeflatingIOSD0Ev
    libPocoFoundation.dll._ZN4Poco12DeflatingIOSD1Ev
    libPocoFoundation.dll._ZN4Poco12DeflatingIOSD2Ev
    libPocoFoundation.dll._ZN4Poco12DigestEngine11digestToHexERKSt6vectorIhSaIhEE
    libPocoFoundation.dll._ZN4Poco12DigestEngineC1Ev
    libPocoFoundation.dll._ZN4Poco12DigestEngineC2Ev
    libPocoFoundation.dll._ZN4Poco12DigestEngineD0Ev
    libPocoFoundation.dll._ZN4Poco12DigestEngineD1Ev
    libPocoFoundation.dll._ZN4Poco12DigestEngineD2Ev
    libPocoFoundation.dll._ZN4Poco12ErrorHandler14defaultHandlerEv
    libPocoFoundation.dll._ZN4Poco12ErrorHandler3setEPS0_
    libPocoFoundation.dll._ZN4Poco12ErrorHandler6_mutexE
    libPocoFoundation.dll._ZN4Poco12ErrorHandler6handleERKNS_9ExceptionE
    libPocoFoundation.dll._ZN4Poco12ErrorHandler6handleERKSt9exception
    libPocoFoundation.dll._ZN4Poco12ErrorHandler6handleEv
    libPocoFoundation.dll._ZN4Poco12ErrorHandler9_pHandlerE
    libPocoFoundation.dll._ZN4Poco12ErrorHandler9exceptionERKNS_9ExceptionE
    libPocoFoundation.dll._ZN4Poco12ErrorHandler9exceptionERKSt9exception
    libPocoFoundation.dll._ZN4Poco12ErrorHandler9exceptionEv
    libPocoFoundation.dll._ZN4Poco12ErrorHandlerC1Ev
    libPocoFoundation.dll._ZN4Poco12ErrorHandlerC2Ev
    libPocoFoundation.dll._ZN4Poco12ErrorHandlerD0Ev
    libPocoFoundation.dll._ZN4Poco12ErrorHandlerD1Ev
    libPocoFoundation.dll._ZN4Poco12ErrorHandlerD2Ev
    libPocoFoundation.dll._ZN4Poco12InflatingIOS5rdbufEv
    libPocoFoundation.dll._ZN4Poco12InflatingIOSC1ERSiNS_18InflatingStreamBuf10StreamTypeE
    libPocoFoundation.dll._ZN4Poco12InflatingIOSC1ERSii
    libPocoFoundation.dll._ZN4Poco12InflatingIOSC1ERSoNS_18InflatingStreamBuf10StreamTypeE
    libPocoFoundation.dll._ZN4Poco12InflatingIOSC1ERSoi
    libPocoFoundation.dll._ZN4Poco12InflatingIOSC2ERSiNS_18InflatingStreamBuf10StreamTypeE
    libPocoFoundation.dll._ZN4Poco12InflatingIOSC2ERSii
    libPocoFoundation.dll._ZN4Poco12InflatingIOSC2ERSoNS_18InflatingStreamBuf10StreamTypeE
    libPocoFoundation.dll._ZN4Poco12InflatingIOSC2ERSoi
    libPocoFoundation.dll._ZN4Poco12InflatingIOSD0Ev
    libPocoFoundation.dll._ZN4Poco12InflatingIOSD1Ev
    libPocoFoundation.dll._ZN4Poco12InflatingIOSD2Ev
    libPocoFoundation.dll._ZN4Poco12InstantiatorINS_11FileChannelENS_7ChannelEED0Ev
    libPocoFoundation.dll._ZN4Poco12InstantiatorINS_11FileChannelENS_7ChannelEED1Ev
    libPocoFoundation.dll._ZN4Poco12InstantiatorINS_11NullChannelENS_7ChannelEED0Ev
    libPocoFoundation.dll._ZN4Poco12InstantiatorINS_11NullChannelENS_7ChannelEED1Ev
    libPocoFoundation.dll._ZN4Poco12InstantiatorINS_12AsyncChannelENS_7ChannelEED0Ev
    libPocoFoundation.dll._ZN4Poco12InstantiatorINS_12AsyncChannelENS_7ChannelEED1Ev
    libPocoFoundation.dll._ZN4Poco12InstantiatorINS_15EventLogChannelENS_7ChannelEED0Ev
    libPocoFoundation.dll._ZN4Poco12InstantiatorINS_15EventLogChannelENS_7ChannelEED1Ev
    libPocoFoundation.dll._ZN4Poco12InstantiatorINS_15SplitterChannelENS_7ChannelEED0Ev
    libPocoFoundation.dll._ZN4Poco12InstantiatorINS_15SplitterChannelENS_7ChannelEED1Ev
    libPocoFoundation.dll._ZN4Poco12InstantiatorINS_16PatternFormatterENS_9FormatterEED0Ev
    libPocoFoundation.dll._ZN4Poco12InstantiatorINS_16PatternFormatterENS_9FormatterEED1Ev
    libPocoFoundation.dll._ZN4Poco12InstantiatorINS_17FormattingChannelENS_7ChannelEED0Ev
    libPocoFoundation.dll._ZN4Poco12InstantiatorINS_17FormattingChannelENS_7ChannelEED1Ev
    libPocoFoundation.dll._ZN4Poco12InstantiatorINS_21WindowsConsoleChannelENS_7ChannelEED0Ev
    libPocoFoundation.dll._ZN4Poco12InstantiatorINS_21WindowsConsoleChannelENS_7ChannelEED1Ev
    libPocoFoundation.dll._ZN4Poco12InvalidTokenC1Ev
    libPocoFoundation.dll._ZN4Poco12InvalidTokenC2Ev
    libPocoFoundation.dll._ZN4Poco12InvalidTokenD0Ev
    libPocoFoundation.dll._ZN4Poco12InvalidTokenD1Ev
    libPocoFoundation.dll._ZN4Poco12InvalidTokenD2Ev
    libPocoFoundation.dll._ZN4Poco12LogStreamBuf11setPriorityENS_7Message8PriorityE
    libPocoFoundation.dll._ZN4Poco12LogStreamBuf13writeToDeviceEc
    libPocoFoundation.dll._ZN4Poco12LogStreamBufC1ERNS_6LoggerENS_7Message8PriorityE
    libPocoFoundation.dll._ZN4Poco12LogStreamBufC2ERNS_6LoggerENS_7Message8PriorityE
    libPocoFoundation.dll._ZN4Poco12LogStreamBufD0Ev
    libPocoFoundation.dll._ZN4Poco12LogStreamBufD1Ev
    libPocoFoundation.dll._ZN4Poco12LogStreamBufD2Ev
    libPocoFoundation.dll._ZN4Poco12ManifestBaseC1Ev
    libPocoFoundation.dll._ZN4Poco12ManifestBaseC2Ev
    libPocoFoundation.dll._ZN4Poco12ManifestBaseD0Ev
    libPocoFoundation.dll._ZN4Poco12ManifestBaseD1Ev
    libPocoFoundation.dll._ZN4Poco12ManifestBaseD2Ev
    libPocoFoundation.dll._ZN4Poco12NotificationC1Ev
    libPocoFoundation.dll._ZN4Poco12NotificationC2Ev
    libPocoFoundation.dll._ZN4Poco12NotificationD0Ev
    libPocoFoundation.dll._ZN4Poco12NotificationD1Ev
    libPocoFoundation.dll._ZN4Poco12NotificationD2Ev
    libPocoFoundation.dll._ZN4Poco12NumberParser10parseFloatERKSs
    libPocoFoundation.dll._ZN4Poco12NumberParser10parseHex64ERKSs
    libPocoFoundation.dll._ZN4Poco12NumberParser10tryParse64ERKSsRx
    libPocoFoundation.dll._ZN4Poco12NumberParser11tryParseHexERKSsRj
    libPocoFoundation.dll._ZN4Poco12NumberParser13parseUnsignedERKSs
    libPocoFoundation.dll._ZN4Poco12NumberParser13tryParseFloatERKSsRd
    libPocoFoundation.dll._ZN4Poco12NumberParser13tryParseHex64ERKSsRy
    libPocoFoundation.dll._ZN4Poco12NumberParser15parseUnsigned64ERKSs
    libPocoFoundation.dll._ZN4Poco12NumberParser16tryParseUnsignedERKSsRj
    libPocoFoundation.dll._ZN4Poco12NumberParser18tryParseUnsigned64ERKSsRy
    libPocoFoundation.dll._ZN4Poco12NumberParser5parseERKSs
    libPocoFoundation.dll._ZN4Poco12NumberParser7parse64ERKSs
    libPocoFoundation.dll._ZN4Poco12NumberParser8parseHexERKSs
    libPocoFoundation.dll._ZN4Poco12NumberParser8tryParseERKSsRi
    libPocoFoundation.dll._ZN4Poco12PooledThread3runEv
    libPocoFoundation.dll._ZN4Poco12PooledThread4joinEv
    libPocoFoundation.dll._ZN4Poco12PooledThread5startENS_6Thread8PriorityERNS_8RunnableE
    libPocoFoundation.dll._ZN4Poco12PooledThread5startENS_6Thread8PriorityERNS_8RunnableERKSs
    libPocoFoundation.dll._ZN4Poco12PooledThread5startEv
    libPocoFoundation.dll._ZN4Poco12PooledThread7releaseEv
    libPocoFoundation.dll._ZN4Poco12PooledThread8activateEv
    libPocoFoundation.dll._ZN4Poco12PooledThread8idleTimeEv
    libPocoFoundation.dll._ZN4Poco12PooledThreadC1ERKSsi
    libPocoFoundation.dll._ZN4Poco12PooledThreadC2ERKSsi
    libPocoFoundation.dll._ZN4Poco12PooledThreadD0Ev
    libPocoFoundation.dll._ZN4Poco12PooledThreadD1Ev
    libPocoFoundation.dll._ZN4Poco12PooledThreadD2Ev
    libPocoFoundation.dll._ZN4Poco12ScopedRWLockD1Ev
    libPocoFoundation.dll._ZN4Poco12SharedMemoryC1ERKNS_4FileENS0_10AccessModeEPKv
    libPocoFoundation.dll._ZN4Poco12SharedMemoryC1ERKS0_
    libPocoFoundation.dll._ZN4Poco12SharedMemoryC1ERKSsjNS0_10AccessModeEPKvb
    libPocoFoundation.dll._ZN4Poco12SharedMemoryC1Ev
    libPocoFoundation.dll._ZN4Poco12SharedMemoryC2ERKNS_4FileENS0_10AccessModeEPKv
    libPocoFoundation.dll._ZN4Poco12SharedMemoryC2ERKS0_
    libPocoFoundation.dll._ZN4Poco12SharedMemoryC2ERKSsjNS0_10AccessModeEPKvb
    libPocoFoundation.dll._ZN4Poco12SharedMemoryC2Ev
    libPocoFoundation.dll._ZN4Poco12SharedMemoryD1Ev
    libPocoFoundation.dll._ZN4Poco12SharedMemoryD2Ev
    libPocoFoundation.dll._ZN4Poco12SharedMemoryaSERKS0_
    libPocoFoundation.dll._ZN4Poco12StreamCopier10copyStreamERSiRSoj
    libPocoFoundation.dll._ZN4Poco12StreamCopier12copyStream64ERSiRSoj
    libPocoFoundation.dll._ZN4Poco12StreamCopier12copyToStringERSiRSsj
    libPocoFoundation.dll._ZN4Poco12StreamCopier14copyToString64ERSiRSsj
    libPocoFoundation.dll._ZN4Poco12StreamCopier20copyStreamUnbufferedERSiRSo
    libPocoFoundation.dll._ZN4Poco12StreamCopier22copyStreamUnbuffered64ERSiRSo
    libPocoFoundation.dll._ZN4Poco12TeeStreamBuf13writeToDeviceEc
    libPocoFoundation.dll._ZN4Poco12TeeStreamBuf14readFromDeviceEv
    libPocoFoundation.dll._ZN4Poco12TeeStreamBuf9addStreamERSo
    libPocoFoundation.dll._ZN4Poco12TeeStreamBufC1ERSi
    libPocoFoundation.dll._ZN4Poco12TeeStreamBufC1ERSo
    libPocoFoundation.dll._ZN4Poco12TeeStreamBufC1Ev
    libPocoFoundation.dll._ZN4Poco12TeeStreamBufC2ERSi
    libPocoFoundation.dll._ZN4Poco12TeeStreamBufC2ERSo
    libPocoFoundation.dll._ZN4Poco12TeeStreamBufC2Ev
    libPocoFoundation.dll._ZN4Poco12TeeStreamBufD0Ev
    libPocoFoundation.dll._ZN4Poco12TeeStreamBufD1Ev
    libPocoFoundation.dll._ZN4Poco12TeeStreamBufD2Ev
    libPocoFoundation.dll._ZN4Poco12TextEncoding3addENS_9SharedPtrIS0_NS_16ReferenceCounterENS_13ReleasePolicyIS0_EEEE
    libPocoFoundation.dll._ZN4Poco12TextEncoding3addENS_9SharedPtrIS0_NS_16ReferenceCounterENS_13ReleasePolicyIS0_EEEERKSs
    libPocoFoundation.dll._ZN4Poco12TextEncoding4findERKSs
    libPocoFoundation.dll._ZN4Poco12TextEncoding6GLOBALE
    libPocoFoundation.dll._ZN4Poco12TextEncoding6byNameERKSs
    libPocoFoundation.dll._ZN4Poco12TextEncoding6globalENS_9SharedPtrIS0_NS_16ReferenceCounterENS_13ReleasePolicyIS0_EEEE
    libPocoFoundation.dll._ZN4Poco12TextEncoding6globalEv
    libPocoFoundation.dll._ZN4Poco12TextEncoding6removeERKSs
    libPocoFoundation.dll._ZN4Poco12TextEncoding7managerEv
    libPocoFoundation.dll._ZN4Poco12TextEncodingD0Ev
    libPocoFoundation.dll._ZN4Poco12TextEncodingD1Ev
    libPocoFoundation.dll._ZN4Poco12TextEncodingD2Ev
    libPocoFoundation.dll._ZN4Poco12TextIterator4swapERS0_
    libPocoFoundation.dll._ZN4Poco12TextIteratorC1ERKN9__gnu_cxx17__normal_iteratorIPKcSsEE
    libPocoFoundation.dll._ZN4Poco12TextIteratorC1ERKN9__gnu_cxx17__normal_iteratorIPKcSsEES7_RKNS_12TextEncodingE
    libPocoFoundation.dll._ZN4Poco12TextIteratorC1ERKS0_
    libPocoFoundation.dll._ZN4Poco12TextIteratorC1ERKSs
    libPocoFoundation.dll._ZN4Poco12TextIteratorC1ERKSsRKNS_12TextEncodingE
    libPocoFoundation.dll._ZN4Poco12TextIteratorC1Ev
    libPocoFoundation.dll._ZN4Poco12TextIteratorC2ERKN9__gnu_cxx17__normal_iteratorIPKcSsEE
    libPocoFoundation.dll._ZN4Poco12TextIteratorC2ERKN9__gnu_cxx17__normal_iteratorIPKcSsEES7_RKNS_12TextEncodingE
    libPocoFoundation.dll._ZN4Poco12TextIteratorC2ERKS0_
    libPocoFoundation.dll._ZN4Poco12TextIteratorC2ERKSs
    libPocoFoundation.dll._ZN4Poco12TextIteratorC2ERKSsRKNS_12TextEncodingE
    libPocoFoundation.dll._ZN4Poco12TextIteratorC2Ev
    libPocoFoundation.dll._ZN4Poco12TextIteratorD1Ev
    libPocoFoundation.dll._ZN4Poco12TextIteratorD2Ev
    libPocoFoundation.dll._ZN4Poco12TextIteratoraSERKS0_
    libPocoFoundation.dll._ZN4Poco12TextIteratorppEi
    libPocoFoundation.dll._ZN4Poco12TextIteratorppEv
    libPocoFoundation.dll._ZN4Poco12ThreadTarget3runEv
    libPocoFoundation.dll._ZN4Poco12ThreadTargetC1EPFvvE
    libPocoFoundation.dll._ZN4Poco12ThreadTargetC1ERKS0_
    libPocoFoundation.dll._ZN4Poco12ThreadTargetC2EPFvvE
    libPocoFoundation.dll._ZN4Poco12ThreadTargetC2ERKS0_
    libPocoFoundation.dll._ZN4Poco12ThreadTargetD0Ev
    libPocoFoundation.dll._ZN4Poco12ThreadTargetD1Ev
    libPocoFoundation.dll._ZN4Poco12ThreadTargetD2Ev
    libPocoFoundation.dll._ZN4Poco12ThreadTargetaSERKS0_
    libPocoFoundation.dll._ZN4Poco12UTF8Encoding6_namesE
    libPocoFoundation.dll._ZN4Poco12UTF8Encoding7isLegalEPKhi
    libPocoFoundation.dll._ZN4Poco12UTF8Encoding8_charMapE
    libPocoFoundation.dll._ZN4Poco12UTF8EncodingC1Ev
    libPocoFoundation.dll._ZN4Poco12UTF8EncodingC2Ev
    libPocoFoundation.dll._ZN4Poco12UTF8EncodingD0Ev
    libPocoFoundation.dll._ZN4Poco12UTF8EncodingD1Ev
    libPocoFoundation.dll._ZN4Poco12UTF8EncodingD2Ev
    libPocoFoundation.dll._ZN4Poco13ASCIIEncoding6_namesE
    libPocoFoundation.dll._ZN4Poco13ASCIIEncoding8_charMapE
    libPocoFoundation.dll._ZN4Poco13ASCIIEncodingC1Ev
    libPocoFoundation.dll._ZN4Poco13ASCIIEncodingC2Ev
    libPocoFoundation.dll._ZN4Poco13ASCIIEncodingD0Ev
    libPocoFoundation.dll._ZN4Poco13ASCIIEncodingD1Ev
    libPocoFoundation.dll._ZN4Poco13ASCIIEncodingD2Ev
    libPocoFoundation.dll._ZN4Poco13AtomicCounterC1ERKS0_
    libPocoFoundation.dll._ZN4Poco13AtomicCounterC1Ei
    libPocoFoundation.dll._ZN4Poco13AtomicCounterC1Ev
    libPocoFoundation.dll._ZN4Poco13AtomicCounterC2ERKS0_
    libPocoFoundation.dll._ZN4Poco13AtomicCounterC2Ei
    libPocoFoundation.dll._ZN4Poco13AtomicCounterC2Ev
    libPocoFoundation.dll._ZN4Poco13AtomicCounterD1Ev
    libPocoFoundation.dll._ZN4Poco13AtomicCounterD2Ev
    libPocoFoundation.dll._ZN4Poco13AtomicCounteraSERKS0_
    libPocoFoundation.dll._ZN4Poco13AtomicCounteraSEi
    libPocoFoundation.dll._ZN4Poco13Base64DecoderC1ERSi
    libPocoFoundation.dll._ZN4Poco13Base64DecoderC2ERSi
    libPocoFoundation.dll._ZN4Poco13Base64DecoderD0Ev
    libPocoFoundation.dll._ZN4Poco13Base64DecoderD1Ev
    libPocoFoundation.dll._ZN4Poco13Base64DecoderD2Ev
    libPocoFoundation.dll._ZN4Poco13Base64EncoderC1ERSo
    libPocoFoundation.dll._ZN4Poco13Base64EncoderC2ERSo
    libPocoFoundation.dll._ZN4Poco13Base64EncoderD0Ev
    libPocoFoundation.dll._ZN4Poco13Base64EncoderD1Ev
    libPocoFoundation.dll._ZN4Poco13Base64EncoderD2Ev
    libPocoFoundation.dll._ZN4Poco13DataExceptionC1ERKS0_
    libPocoFoundation.dll._ZN4Poco13DataExceptionC1ERKSsRKNS_9ExceptionEi
    libPocoFoundation.dll._ZN4Poco13DataExceptionC1ERKSsS2_i
    libPocoFoundation.dll._ZN4Poco13DataExceptionC1ERKSsi
    libPocoFoundation.dll._ZN4Poco13DataExceptionC1Ei
    libPocoFoundation.dll._ZN4Poco13DataExceptionC2ERKS0_
    libPocoFoundation.dll._ZN4Poco13DataExceptionC2ERKSsRKNS_9ExceptionEi
    libPocoFoundation.dll._ZN4Poco13DataExceptionC2ERKSsS2_i
    libPocoFoundation.dll._ZN4Poco13DataExceptionC2ERKSsi
    libPocoFoundation.dll._ZN4Poco13DataExceptionC2Ei
    libPocoFoundation.dll._ZN4Poco13DataExceptionD0Ev
    libPocoFoundation.dll._ZN4Poco13DataExceptionD1Ev
    libPocoFoundation.dll._ZN4Poco13DataExceptionD2Ev
    libPocoFoundation.dll._ZN4Poco13DataExceptionaSERKS0_
    libPocoFoundation.dll._ZN4Poco13FPEnvironment10clearFlagsEv
    libPocoFoundation.dll._ZN4Poco13FPEnvironment11keepCurrentEv
    libPocoFoundation.dll._ZN4Poco13FPEnvironmentC1ENS0_12RoundingModeE
    libPocoFoundation.dll._ZN4Poco13FPEnvironmentC1ERKS0_
    libPocoFoundation.dll._ZN4Poco13FPEnvironmentC1Ev
    libPocoFoundation.dll._ZN4Poco13FPEnvironmentC2ENS0_12RoundingModeE
    libPocoFoundation.dll._ZN4Poco13FPEnvironmentC2ERKS0_
    libPocoFoundation.dll._ZN4Poco13FPEnvironmentC2Ev
    libPocoFoundation.dll._ZN4Poco13FPEnvironmentD1Ev
    libPocoFoundation.dll._ZN4Poco13FPEnvironmentD2Ev
    libPocoFoundation.dll._ZN4Poco13FPEnvironmentaSERKS0_
    libPocoFoundation.dll._ZN4Poco13FileExceptionC1ERKS0_
    libPocoFoundation.dll._ZN4Poco13FileExceptionC1ERKSsRKNS_9ExceptionEi
    libPocoFoundation.dll._ZN4Poco13FileExceptionC1ERKSsS2_i
    libPocoFoundation.dll._ZN4Poco13FileExceptionC1ERKSsi
    libPocoFoundation.dll._ZN4Poco13FileExceptionC1Ei
    libPocoFoundation.dll._ZN4Poco13FileExceptionC2ERKS0_
    libPocoFoundation.dll._ZN4Poco13FileExceptionC2ERKSsRKNS_9ExceptionEi
    libPocoFoundation.dll._ZN4Poco13FileExceptionC2ERKSsS2_i
    libPocoFoundation.dll._ZN4Poco13FileExceptionC2ERKSsi
    libPocoFoundation.dll._ZN4Poco13FileExceptionC2Ei
    libPocoFoundation.dll._ZN4Poco13FileExceptionD0Ev
    libPocoFoundation.dll._ZN4Poco13FileExceptionD1Ev
    libPocoFoundation.dll._ZN4Poco13FileExceptionD2Ev
    libPocoFoundation.dll._ZN4Poco13FileExceptionaSERKS0_
    libPocoFoundation.dll._ZN4Poco13FileStreamBuf13writeToDeviceEPKci
    libPocoFoundation.dll._ZN4Poco13FileStreamBuf14readFromDeviceEPci
    libPocoFoundation.dll._ZN4Poco13FileStreamBuf4openERKSsSt13_Ios_Openmode
    libPocoFoundation.dll._ZN4Poco13FileStreamBuf5closeEv
    libPocoFoundation.dll._ZN4Poco13FileStreamBuf7seekoffExSt12_Ios_SeekdirSt13_Ios_Openmode
    libPocoFoundation.dll._ZN4Poco13FileStreamBuf7seekposESt4fposIiESt13_Ios_Openmode
    libPocoFoundation.dll._ZN4Poco13FileStreamBufC1Ev
    libPocoFoundation.dll._ZN4Poco13FileStreamBufC2Ev
    libPocoFoundation.dll._ZN4Poco13FileStreamBufD0Ev
    libPocoFoundation.dll._ZN4Poco13FileStreamBufD1Ev
    libPocoFoundation.dll._ZN4Poco13FileStreamBufD2Ev
    libPocoFoundation.dll._ZN4Poco13HashStatisticC1EjjjjSt6vectorIjSaIjEE
    libPocoFoundation.dll._ZN4Poco13HashStatisticC2EjjjjSt6vectorIjSaIjEE
    libPocoFoundation.dll._ZN4Poco13HashStatisticD0Ev
    libPocoFoundation.dll._ZN4Poco13HashStatisticD1Ev
    libPocoFoundation.dll._ZN4Poco13HashStatisticD2Ev
    libPocoFoundation.dll._ZN4Poco13LocalDateTime12determineTzdEb
    libPocoFoundation.dll._ZN4Poco13LocalDateTime4swapERS0_
    libPocoFoundation.dll._ZN4Poco13LocalDateTime6assignEid
    libPocoFoundation.dll._ZN4Poco13LocalDateTime6assignEiiiiiiii
    libPocoFoundation.dll._ZN4Poco13LocalDateTime6assignEiiiiiiiii
    libPocoFoundation.dll._ZN4Poco13LocalDateTimeC1ERKNS_8DateTimeE
    libPocoFoundation.dll._ZN4Poco13LocalDateTimeC1ERKS0_
    libPocoFoundation.dll._ZN4Poco13LocalDateTimeC1Ed
    libPocoFoundation.dll._ZN4Poco13LocalDateTimeC1EiRKNS_8DateTimeE
    libPocoFoundation.dll._ZN4Poco13LocalDateTimeC1EiRKNS_8DateTimeEb
    libPocoFoundation.dll._ZN4Poco13LocalDateTimeC1Eid
    libPocoFoundation.dll._ZN4Poco13LocalDateTimeC1Eiiiiiiii
    libPocoFoundation.dll._ZN4Poco13LocalDateTimeC1Eiiiiiiiii
    libPocoFoundation.dll._ZN4Poco13LocalDateTimeC1Ev
    libPocoFoundation.dll._ZN4Poco13LocalDateTimeC1Exxi
    libPocoFoundation.dll._ZN4Poco13LocalDateTimeC2ERKNS_8DateTimeE
    libPocoFoundation.dll._ZN4Poco13LocalDateTimeC2ERKS0_
    libPocoFoundation.dll._ZN4Poco13LocalDateTimeC2Ed
    libPocoFoundation.dll._ZN4Poco13LocalDateTimeC2EiRKNS_8DateTimeE
    libPocoFoundation.dll._ZN4Poco13LocalDateTimeC2EiRKNS_8DateTimeEb
    libPocoFoundation.dll._ZN4Poco13LocalDateTimeC2Eid
    libPocoFoundation.dll._ZN4Poco13LocalDateTimeC2Eiiiiiiii
    libPocoFoundation.dll._ZN4Poco13LocalDateTimeC2Eiiiiiiiii
    libPocoFoundation.dll._ZN4Poco13LocalDateTimeC2Ev
    libPocoFoundation.dll._ZN4Poco13LocalDateTimeC2Exxi
    libPocoFoundation.dll._ZN4Poco13LocalDateTimeD1Ev
    libPocoFoundation.dll._ZN4Poco13LocalDateTimeD2Ev
    libPocoFoundation.dll._ZN4Poco13LocalDateTimeaSERKNS_9TimestampE
    libPocoFoundation.dll._ZN4Poco13LocalDateTimeaSERKS0_
    libPocoFoundation.dll._ZN4Poco13LocalDateTimeaSEd
    libPocoFoundation.dll._ZN4Poco13LocalDateTimemIERKNS_8TimespanE
    libPocoFoundation.dll._ZN4Poco13LocalDateTimepLERKNS_8TimespanE
    libPocoFoundation.dll._ZN4Poco13NullStreamBuf13writeToDeviceEc
    libPocoFoundation.dll._ZN4Poco13NullStreamBuf14readFromDeviceEv
    libPocoFoundation.dll._ZN4Poco13NullStreamBufC1Ev
    libPocoFoundation.dll._ZN4Poco13NullStreamBufC2Ev
    libPocoFoundation.dll._ZN4Poco13NullStreamBufD0Ev
    libPocoFoundation.dll._ZN4Poco13NullStreamBufD1Ev
    libPocoFoundation.dll._ZN4Poco13NullStreamBufD2Ev
    libPocoFoundation.dll._ZN4Poco13PipeStreamBuf13writeToDeviceEPKci
    libPocoFoundation.dll._ZN4Poco13PipeStreamBuf14readFromDeviceEPci
    libPocoFoundation.dll._ZN4Poco13PipeStreamBuf5closeEv
    libPocoFoundation.dll._ZN4Poco13PipeStreamBufC1ERKNS_4PipeESt13_Ios_Openmode
    libPocoFoundation.dll._ZN4Poco13PipeStreamBufC2ERKNS_4PipeESt13_Ios_Openmode
    libPocoFoundation.dll._ZN4Poco13PipeStreamBufD0Ev
    libPocoFoundation.dll._ZN4Poco13PipeStreamBufD1Ev
    libPocoFoundation.dll._ZN4Poco13PipeStreamBufD2Ev
    libPocoFoundation.dll._ZN4Poco13ProcessHandleC1EPNS_17ProcessHandleImplE
    libPocoFoundation.dll._ZN4Poco13ProcessHandleC1ERKS0_
    libPocoFoundation.dll._ZN4Poco13ProcessHandleC2EPNS_17ProcessHandleImplE
    libPocoFoundation.dll._ZN4Poco13ProcessHandleC2ERKS0_
    libPocoFoundation.dll._ZN4Poco13ProcessHandleD1Ev
    libPocoFoundation.dll._ZN4Poco13ProcessHandleD2Ev
    libPocoFoundation.dll._ZN4Poco13ProcessHandleaSERKS0_
    libPocoFoundation.dll._ZN4Poco13PurgeStrategy4listERKSsRSt6vectorINS_4FileESaIS4_EE
    libPocoFoundation.dll._ZN4Poco13PurgeStrategyC1Ev
    libPocoFoundation.dll._ZN4Poco13PurgeStrategyC2Ev
    libPocoFoundation.dll._ZN4Poco13PurgeStrategyD0Ev
    libPocoFoundation.dll._ZN4Poco13PurgeStrategyD1Ev
    libPocoFoundation.dll._ZN4Poco13PurgeStrategyD2Ev
    libPocoFoundation.dll._ZN4Poco13SemaphoreImpl8waitImplEl
    libPocoFoundation.dll._ZN4Poco13SemaphoreImpl8waitImplEv
    libPocoFoundation.dll._ZN4Poco13SemaphoreImplC1Eii
    libPocoFoundation.dll._ZN4Poco13SemaphoreImplC2Eii
    libPocoFoundation.dll._ZN4Poco13SemaphoreImplD1Ev
    libPocoFoundation.dll._ZN4Poco13SemaphoreImplD2Ev
    libPocoFoundation.dll._ZN4Poco13SharedLibrary4loadERKSs
    libPocoFoundation.dll._ZN4Poco13SharedLibrary4loadERKSsi
    libPocoFoundation.dll._ZN4Poco13SharedLibrary6suffixEv
    libPocoFoundation.dll._ZN4Poco13SharedLibrary6unloadEv
    libPocoFoundation.dll._ZN4Poco13SharedLibrary9getSymbolERKSs
    libPocoFoundation.dll._ZN4Poco13SharedLibrary9hasSymbolERKSs
    libPocoFoundation.dll._ZN4Poco13SharedLibraryC1ERKSs
    libPocoFoundation.dll._ZN4Poco13SharedLibraryC1ERKSsi
    libPocoFoundation.dll._ZN4Poco13SharedLibraryC1Ev
    libPocoFoundation.dll._ZN4Poco13SharedLibraryC2ERKSs
    libPocoFoundation.dll._ZN4Poco13SharedLibraryC2ERKSsi
    libPocoFoundation.dll._ZN4Poco13SharedLibraryC2Ev
    libPocoFoundation.dll._ZN4Poco13SharedLibraryD0Ev
    libPocoFoundation.dll._ZN4Poco13SharedLibraryD1Ev
    libPocoFoundation.dll._ZN4Poco13SharedLibraryD2Ev
    libPocoFoundation.dll._ZN4Poco13StreamChannel3logERKNS_7MessageE
    libPocoFoundation.dll._ZN4Poco13StreamChannelC1ERSo
    libPocoFoundation.dll._ZN4Poco13StreamChannelC2ERSo
    libPocoFoundation.dll._ZN4Poco13StreamChannelD0Ev
    libPocoFoundation.dll._ZN4Poco13StreamChannelD1Ev
    libPocoFoundation.dll._ZN4Poco13StreamChannelD2Ev
    libPocoFoundation.dll._ZN4Poco13TemporaryFile13keepUntilExitEv
    libPocoFoundation.dll._ZN4Poco13TemporaryFile19registerForDeletionERKSs
    libPocoFoundation.dll._ZN4Poco13TemporaryFile4keepEv
    libPocoFoundation.dll._ZN4Poco13TemporaryFile8tempNameERKSs
    libPocoFoundation.dll._ZN4Poco13TemporaryFileC1ERKSs
    libPocoFoundation.dll._ZN4Poco13TemporaryFileC1Ev
    libPocoFoundation.dll._ZN4Poco13TemporaryFileC2ERKSs
    libPocoFoundation.dll._ZN4Poco13TemporaryFileC2Ev
    libPocoFoundation.dll._ZN4Poco13TemporaryFileD0Ev
    libPocoFoundation.dll._ZN4Poco13TemporaryFileD1Ev
    libPocoFoundation.dll._ZN4Poco13TemporaryFileD2Ev
    libPocoFoundation.dll._ZN4Poco13TextConverter7convertEPKviRSs
    libPocoFoundation.dll._ZN4Poco13TextConverter7convertEPKviRSsPFiiE
    libPocoFoundation.dll._ZN4Poco13TextConverter7convertERKSsRSs
    libPocoFoundation.dll._ZN4Poco13TextConverter7convertERKSsRSsPFiiE
    libPocoFoundation.dll._ZN4Poco13TextConverterC1ERKNS_12TextEncodingES3_i
    libPocoFoundation.dll._ZN4Poco13TextConverterC2ERKNS_12TextEncodingES3_i
    libPocoFoundation.dll._ZN4Poco13TextConverterD1Ev
    libPocoFoundation.dll._ZN4Poco13TextConverterD2Ev
    libPocoFoundation.dll._ZN4Poco13UTF16Encoding12setByteOrderENS0_13ByteOrderTypeE
    libPocoFoundation.dll._ZN4Poco13UTF16Encoding12setByteOrderEi
    libPocoFoundation.dll._ZN4Poco13UTF16Encoding6_namesE
    libPocoFoundation.dll._ZN4Poco13UTF16Encoding8_charMapE
    libPocoFoundation.dll._ZN4Poco13UTF16EncodingC1ENS0_13ByteOrderTypeE
    libPocoFoundation.dll._ZN4Poco13UTF16EncodingC1Ei
    libPocoFoundation.dll._ZN4Poco13UTF16EncodingC2ENS0_13ByteOrderTypeE
    libPocoFoundation.dll._ZN4Poco13UTF16EncodingC2Ei
    libPocoFoundation.dll._ZN4Poco13UTF16EncodingD0Ev
    libPocoFoundation.dll._ZN4Poco13UTF16EncodingD1Ev
    libPocoFoundation.dll._ZN4Poco13UTF16EncodingD2Ev
    libPocoFoundation.dll._ZN4Poco13UUIDGenerator12createRandomEv
    libPocoFoundation.dll._ZN4Poco13UUIDGenerator14createFromNameERKNS_4UUIDERKSs
    libPocoFoundation.dll._ZN4Poco13UUIDGenerator14createFromNameERKNS_4UUIDERKSsRNS_12DigestEngineE
    libPocoFoundation.dll._ZN4Poco13UUIDGenerator16defaultGeneratorEv
    libPocoFoundation.dll._ZN4Poco13UUIDGenerator6createEv
    libPocoFoundation.dll._ZN4Poco13UUIDGenerator9createOneEv
    libPocoFoundation.dll._ZN4Poco13UUIDGenerator9timeStampEv
    libPocoFoundation.dll._ZN4Poco13UUIDGeneratorC1Ev
    libPocoFoundation.dll._ZN4Poco13UUIDGeneratorC2Ev
    libPocoFoundation.dll._ZN4Poco13UUIDGeneratorD1Ev
    libPocoFoundation.dll._ZN4Poco13UUIDGeneratorD2Ev
    libPocoFoundation.dll._ZN4Poco14ActiveRunnableINS_4VoidESsNS_17ArchiveCompressorEE3runEv
    libPocoFoundation.dll._ZN4Poco14ActiveRunnableINS_4VoidESsNS_17ArchiveCompressorEED0Ev
    libPocoFoundation.dll._ZN4Poco14ActiveRunnableINS_4VoidESsNS_17ArchiveCompressorEED1Ev
    libPocoFoundation.dll._ZN4Poco14ConsoleChannel3logERKNS_7MessageE
    libPocoFoundation.dll._ZN4Poco14ConsoleChannel6_mutexE
    libPocoFoundation.dll._ZN4Poco14ConsoleChannelC1ERSo
    libPocoFoundation.dll._ZN4Poco14ConsoleChannelC1Ev
    libPocoFoundation.dll._ZN4Poco14ConsoleChannelC2ERSo
    libPocoFoundation.dll._ZN4Poco14ConsoleChannelC2Ev
    libPocoFoundation.dll._ZN4Poco14ConsoleChannelD0Ev
    libPocoFoundation.dll._ZN4Poco14ConsoleChannelD1Ev
    libPocoFoundation.dll._ZN4Poco14ConsoleChannelD2Ev
    libPocoFoundation.dll._ZN4Poco14DateTimeFormat11HTTP_FORMATE
    libPocoFoundation.dll._ZN4Poco14DateTimeFormat11MONTH_NAMESE
    libPocoFoundation.dll._ZN4Poco14DateTimeFormat13RFC822_FORMATE
    libPocoFoundation.dll._ZN4Poco14DateTimeFormat13RFC850_FORMATE
    libPocoFoundation.dll._ZN4Poco14DateTimeFormat13WEEKDAY_NAMESE
    libPocoFoundation.dll._ZN4Poco14DateTimeFormat14ASCTIME_FORMATE
    libPocoFoundation.dll._ZN4Poco14DateTimeFormat14ISO8601_FORMATE
    libPocoFoundation.dll._ZN4Poco14DateTimeFormat14RFC1036_FORMATE
    libPocoFoundation.dll._ZN4Poco14DateTimeFormat14RFC1123_FORMATE
    libPocoFoundation.dll._ZN4Poco14DateTimeFormat15SORTABLE_FORMATE
    libPocoFoundation.dll._ZN4Poco14DateTimeFormat19ISO8601_FRAC_FORMATE
    libPocoFoundation.dll._ZN4Poco14DateTimeParser10parseMonthERN9__gnu_cxx17__normal_iteratorIPKcSsEERKS5_
    libPocoFoundation.dll._ZN4Poco14DateTimeParser14parseDayOfWeekERN9__gnu_cxx17__normal_iteratorIPKcSsEERKS5_
    libPocoFoundation.dll._ZN4Poco14DateTimeParser5parseERKSsRNS_8DateTimeERi
    libPocoFoundation.dll._ZN4Poco14DateTimeParser5parseERKSsRi
    libPocoFoundation.dll._ZN4Poco14DateTimeParser5parseERKSsS2_RNS_8DateTimeERi
    libPocoFoundation.dll._ZN4Poco14DateTimeParser5parseERKSsS2_Ri
    libPocoFoundation.dll._ZN4Poco14DateTimeParser8parseTZDERN9__gnu_cxx17__normal_iteratorIPKcSsEERKS5_
    libPocoFoundation.dll._ZN4Poco14DateTimeParser8tryParseERKSsRNS_8DateTimeERi
    libPocoFoundation.dll._ZN4Poco14DateTimeParser8tryParseERKSsS2_RNS_8DateTimeERi
    libPocoFoundation.dll._ZN4Poco14DateTimeParser9parseAMPMERN9__gnu_cxx17__normal_iteratorIPKcSsEERKS5_i
    libPocoFoundation.dll._ZN4Poco14DynamicFactoryINS_7ChannelEED1Ev
    libPocoFoundation.dll._ZN4Poco14DynamicFactoryINS_9FormatterEED1Ev
    libPocoFoundation.dll._ZN4Poco14Latin1Encoding6_namesE
    libPocoFoundation.dll._ZN4Poco14Latin1Encoding8_charMapE
    libPocoFoundation.dll._ZN4Poco14Latin1EncodingC1Ev
    libPocoFoundation.dll._ZN4Poco14Latin1EncodingC2Ev
    libPocoFoundation.dll._ZN4Poco14Latin1EncodingD0Ev
    libPocoFoundation.dll._ZN4Poco14Latin1EncodingD1Ev
    libPocoFoundation.dll._ZN4Poco14Latin1EncodingD2Ev
    libPocoFoundation.dll._ZN4Poco14Latin9Encoding6_namesE
    libPocoFoundation.dll._ZN4Poco14Latin9Encoding8_charMapE
    libPocoFoundation.dll._ZN4Poco14Latin9EncodingC1Ev
    libPocoFoundation.dll._ZN4Poco14Latin9EncodingC2Ev
    libPocoFoundation.dll._ZN4Poco14Latin9EncodingD0Ev
    libPocoFoundation.dll._ZN4Poco14Latin9EncodingD1Ev
    libPocoFoundation.dll._ZN4Poco14Latin9EncodingD2Ev
    libPocoFoundation.dll._ZN4Poco14LoggingFactory14defaultFactoryEv
    libPocoFoundation.dll._ZN4Poco14LoggingFactory16registerBuiltinsEv
    libPocoFoundation.dll._ZN4Poco14LoggingFactory20registerChannelClassERKSsPNS_20AbstractInstantiatorINS_7ChannelEEE
    libPocoFoundation.dll._ZN4Poco14LoggingFactory22registerFormatterClassERKSsPNS_20AbstractInstantiatorINS_9FormatterEEE
    libPocoFoundation.dll._ZN4Poco14LoggingFactoryC1Ev
    libPocoFoundation.dll._ZN4Poco14LoggingFactoryC2Ev
    libPocoFoundation.dll._ZN4Poco14LoggingFactoryD1Ev
    libPocoFoundation.dll._ZN4Poco14LoggingFactoryD2Ev
    libPocoFoundation.dll._ZN4Poco14LogicExceptionC1ERKS0_
    libPocoFoundation.dll._ZN4Poco14LogicExceptionC1ERKSsRKNS_9ExceptionEi
    libPocoFoundation.dll._ZN4Poco14LogicExceptionC1ERKSsS2_i
    libPocoFoundation.dll._ZN4Poco14LogicExceptionC1ERKSsi
    libPocoFoundation.dll._ZN4Poco14LogicExceptionC1Ei
    libPocoFoundation.dll._ZN4Poco14LogicExceptionC2ERKS0_
    libPocoFoundation.dll._ZN4Poco14LogicExceptionC2ERKSsRKNS_9ExceptionEi
    libPocoFoundation.dll._ZN4Poco14LogicExceptionC2ERKSsS2_i
    libPocoFoundation.dll._ZN4Poco14LogicExceptionC2ERKSsi
    libPocoFoundation.dll._ZN4Poco14LogicExceptionC2Ei
    libPocoFoundation.dll._ZN4Poco14LogicExceptionD0Ev
    libPocoFoundation.dll._ZN4Poco14LogicExceptionD1Ev
    libPocoFoundation.dll._ZN4Poco14LogicExceptionD2Ev
    libPocoFoundation.dll._ZN4Poco14LogicExceptionaSERKS0_
    libPocoFoundation.dll._ZN4Poco14NamedEventImpl7setImplEv
    libPocoFoundation.dll._ZN4Poco14NamedEventImpl8waitImplEv
    libPocoFoundation.dll._ZN4Poco14NamedEventImplC1ERKSs
    libPocoFoundation.dll._ZN4Poco14NamedEventImplC2ERKSs
    libPocoFoundation.dll._ZN4Poco14NamedEventImplD1Ev
    libPocoFoundation.dll._ZN4Poco14NamedEventImplD2Ev
    libPocoFoundation.dll._ZN4Poco14NamedMutexImpl10unlockImplEv
    libPocoFoundation.dll._ZN4Poco14NamedMutexImpl11tryLockImplEv
    libPocoFoundation.dll._ZN4Poco14NamedMutexImpl8lockImplEv
    libPocoFoundation.dll._ZN4Poco14NamedMutexImplC1ERKSs
    libPocoFoundation.dll._ZN4Poco14NamedMutexImplC2ERKSs
    libPocoFoundation.dll._ZN4Poco14NamedMutexImplD1Ev
    libPocoFoundation.dll._ZN4Poco14NamedMutexImplD2Ev
    libPocoFoundation.dll._ZN4Poco14RangeExceptionC1ERKS0_
    libPocoFoundation.dll._ZN4Poco14RangeExceptionC1ERKSsRKNS_9ExceptionEi
    libPocoFoundation.dll._ZN4Poco14RangeExceptionC1ERKSsS2_i
    libPocoFoundation.dll._ZN4Poco14RangeExceptionC1ERKSsi
    libPocoFoundation.dll._ZN4Poco14RangeExceptionC1Ei
    libPocoFoundation.dll._ZN4Poco14RangeExceptionC2ERKS0_
    libPocoFoundation.dll._ZN4Poco14RangeExceptionC2ERKSsRKNS_9ExceptionEi
    libPocoFoundation.dll._ZN4Poco14RangeExceptionC2ERKSsS2_i
    libPocoFoundation.dll._ZN4Poco14RangeExceptionC2ERKSsi
    libPocoFoundation.dll._ZN4Poco14RangeExceptionC2Ei
    libPocoFoundation.dll._ZN4Poco14RangeExceptionD0Ev
    libPocoFoundation.dll._ZN4Poco14RangeExceptionD1Ev
    libPocoFoundation.dll._ZN4Poco14RangeExceptionD2Ev
    libPocoFoundation.dll._ZN4Poco14RangeExceptionaSERKS0_
    libPocoFoundation.dll._ZN4Poco14RotateStrategyC1Ev
    libPocoFoundation.dll._ZN4Poco14RotateStrategyC2Ev
    libPocoFoundation.dll._ZN4Poco14RotateStrategyD0Ev
    libPocoFoundation.dll._ZN4Poco14RotateStrategyD1Ev
    libPocoFoundation.dll._ZN4Poco14RotateStrategyD2Ev
    libPocoFoundation.dll._ZN4Poco14TeeInputStreamC1ERSi
    libPocoFoundation.dll._ZN4Poco14TeeInputStreamC2ERSi
    libPocoFoundation.dll._ZN4Poco14TeeInputStreamD0Ev
    libPocoFoundation.dll._ZN4Poco14TeeInputStreamD1Ev
    libPocoFoundation.dll._ZN4Poco14TeeInputStreamD2Ev
    libPocoFoundation.dll._ZN4Poco14URIRedirection4swapERS0_
    libPocoFoundation.dll._ZN4Poco14URIRedirectionC1ERKS0_
    libPocoFoundation.dll._ZN4Poco14URIRedirectionC1ERKSs
    libPocoFoundation.dll._ZN4Poco14URIRedirectionC2ERKS0_
    libPocoFoundation.dll._ZN4Poco14URIRedirectionC2ERKSs
    libPocoFoundation.dll._ZN4Poco14URIRedirectionaSERKS0_
    libPocoFoundation.dll._ZN4Poco14toLowerInPlaceISsEERT_S2_
    libPocoFoundation.dll._ZN4Poco15ArchiveStrategy6existsERKSs
    libPocoFoundation.dll._ZN4Poco15ArchiveStrategy8compressEb
    libPocoFoundation.dll._ZN4Poco15ArchiveStrategy8moveFileERKSsS2_
    libPocoFoundation.dll._ZN4Poco15ArchiveStrategyC1Ev
    libPocoFoundation.dll._ZN4Poco15ArchiveStrategyC2Ev
    libPocoFoundation.dll._ZN4Poco15ArchiveStrategyD0Ev
    libPocoFoundation.dll._ZN4Poco15ArchiveStrategyD1Ev
    libPocoFoundation.dll._ZN4Poco15ArchiveStrategyD2Ev
    libPocoFoundation.dll._ZN4Poco15EnvironmentImpl10nodeIdImplERA6_h
    libPocoFoundation.dll._ZN4Poco15EnvironmentImpl10osNameImplEv
    libPocoFoundation.dll._ZN4Poco15EnvironmentImpl12nodeNameImplEv
    libPocoFoundation.dll._ZN4Poco15EnvironmentImpl13osVersionImplEv
    libPocoFoundation.dll._ZN4Poco15EnvironmentImpl17osDisplayNameImplEv
    libPocoFoundation.dll._ZN4Poco15EnvironmentImpl18osArchitectureImplEv
    libPocoFoundation.dll._ZN4Poco15EnvironmentImpl18processorCountImplEv
    libPocoFoundation.dll._ZN4Poco15EnvironmentImpl7getImplERKSs
    libPocoFoundation.dll._ZN4Poco15EnvironmentImpl7hasImplERKSs
    libPocoFoundation.dll._ZN4Poco15EnvironmentImpl7setImplERKSsS2_
    libPocoFoundation.dll._ZN4Poco15EventLogChannel11findLibraryEPKc
    libPocoFoundation.dll._ZN4Poco15EventLogChannel11getCategoryERKNS_7MessageE
    libPocoFoundation.dll._ZN4Poco15EventLogChannel11setPropertyERKSsS2_
    libPocoFoundation.dll._ZN4Poco15EventLogChannel12PROP_LOGFILEE
    libPocoFoundation.dll._ZN4Poco15EventLogChannel12PROP_LOGHOSTE
    libPocoFoundation.dll._ZN4Poco15EventLogChannel3logERKNS_7MessageE
    libPocoFoundation.dll._ZN4Poco15EventLogChannel4openEv
    libPocoFoundation.dll._ZN4Poco15EventLogChannel5closeEv
    libPocoFoundation.dll._ZN4Poco15EventLogChannel7getTypeERKNS_7MessageE
    libPocoFoundation.dll._ZN4Poco15EventLogChannel9PROP_HOSTE
    libPocoFoundation.dll._ZN4Poco15EventLogChannel9PROP_NAMEE
    libPocoFoundation.dll._ZN4Poco15EventLogChannelC1ERKSs
    libPocoFoundation.dll._ZN4Poco15EventLogChannelC1ERKSsS2_
    libPocoFoundation.dll._ZN4Poco15EventLogChannelC1Ev
    libPocoFoundation.dll._ZN4Poco15EventLogChannelC2ERKSs
    libPocoFoundation.dll._ZN4Poco15EventLogChannelC2ERKSsS2_
    libPocoFoundation.dll._ZN4Poco15EventLogChannelC2Ev
    libPocoFoundation.dll._ZN4Poco15EventLogChannelD0Ev
    libPocoFoundation.dll._ZN4Poco15EventLogChannelD1Ev
    libPocoFoundation.dll._ZN4Poco15EventLogChannelD2Ev
    libPocoFoundation.dll._ZN4Poco15ExistsExceptionC1ERKS0_
    libPocoFoundation.dll._ZN4Poco15ExistsExceptionC1ERKSsRKNS_9ExceptionEi
    libPocoFoundation.dll._ZN4Poco15ExistsExceptionC1ERKSsS2_i
    libPocoFoundation.dll._ZN4Poco15ExistsExceptionC1ERKSsi
    libPocoFoundation.dll._ZN4Poco15ExistsExceptionC1Ei
    libPocoFoundation.dll._ZN4Poco15ExistsExceptionC2ERKS0_
    libPocoFoundation.dll._ZN4Poco15ExistsExceptionC2ERKSsRKNS_9ExceptionEi
    libPocoFoundation.dll._ZN4Poco15ExistsExceptionC2ERKSsS2_i
    libPocoFoundation.dll._ZN4Poco15ExistsExceptionC2ERKSsi
    libPocoFoundation.dll._ZN4Poco15ExistsExceptionC2Ei
    libPocoFoundation.dll._ZN4Poco15ExistsExceptionD0Ev
    libPocoFoundation.dll._ZN4Poco15ExistsExceptionD1Ev
    libPocoFoundation.dll._ZN4Poco15ExistsExceptionD2Ev
    libPocoFoundation.dll._ZN4Poco15ExistsExceptionaSERKS0_
    libPocoFoundation.dll._ZN4Poco15FileInputStreamC1ERKSsSt13_Ios_Openmode
    libPocoFoundation.dll._ZN4Poco15FileInputStreamC1Ev
    libPocoFoundation.dll._ZN4Poco15FileInputStreamC2ERKSsSt13_Ios_Openmode
    libPocoFoundation.dll._ZN4Poco15FileInputStreamC2Ev
    libPocoFoundation.dll._ZN4Poco15FileInputStreamD0Ev
    libPocoFoundation.dll._ZN4Poco15FileInputStreamD1Ev
    libPocoFoundation.dll._ZN4Poco15FileInputStreamD2Ev
    libPocoFoundation.dll._ZN4Poco15LoggingRegistry15defaultRegistryEv
    libPocoFoundation.dll._ZN4Poco15LoggingRegistry15registerChannelERKSsPNS_7ChannelE
    libPocoFoundation.dll._ZN4Poco15LoggingRegistry17registerFormatterERKSsPNS_9FormatterE
    libPocoFoundation.dll._ZN4Poco15LoggingRegistry17unregisterChannelERKSs
    libPocoFoundation.dll._ZN4Poco15LoggingRegistry19unregisterFormatterERKSs
    libPocoFoundation.dll._ZN4Poco15LoggingRegistry5clearEv
    libPocoFoundation.dll._ZN4Poco15LoggingRegistryC1Ev
    libPocoFoundation.dll._ZN4Poco15LoggingRegistryC2Ev
    libPocoFoundation.dll._ZN4Poco15LoggingRegistryD1Ev
    libPocoFoundation.dll._ZN4Poco15LoggingRegistryD2Ev
    libPocoFoundation.dll._ZN4Poco15NullInputStreamC1Ev
    libPocoFoundation.dll._ZN4Poco15NullInputStreamC2Ev
    libPocoFoundation.dll._ZN4Poco15NullInputStreamD0Ev
    libPocoFoundation.dll._ZN4Poco15NullInputStreamD1Ev
    libPocoFoundation.dll._ZN4Poco15NullInputStreamD2Ev
    libPocoFoundation.dll._ZN4Poco15NumberFormatter6appendERSsPKv
    libPocoFoundation.dll._ZN4Poco15NumberFormatter6appendERSsd
    libPocoFoundation.dll._ZN4Poco15NumberFormatter6appendERSsdi
    libPocoFoundation.dll._ZN4Poco15NumberFormatter6appendERSsdii
    libPocoFoundation.dll._ZN4Poco15NumberFormatter6appendERSsf
    libPocoFoundation.dll._ZN4Poco15NumberFormatter6appendERSsi
    libPocoFoundation.dll._ZN4Poco15NumberFormatter6appendERSsii
    libPocoFoundation.dll._ZN4Poco15NumberFormatter6appendERSsj
    libPocoFoundation.dll._ZN4Poco15NumberFormatter6appendERSsji
    libPocoFoundation.dll._ZN4Poco15NumberFormatter6appendERSsl
    libPocoFoundation.dll._ZN4Poco15NumberFormatter6appendERSsli
    libPocoFoundation.dll._ZN4Poco15NumberFormatter6appendERSsm
    libPocoFoundation.dll._ZN4Poco15NumberFormatter6appendERSsmi
    libPocoFoundation.dll._ZN4Poco15NumberFormatter6appendERSsx
    libPocoFoundation.dll._ZN4Poco15NumberFormatter6appendERSsxi
    libPocoFoundation.dll._ZN4Poco15NumberFormatter6appendERSsy
    libPocoFoundation.dll._ZN4Poco15NumberFormatter6appendERSsyi
    libPocoFoundation.dll._ZN4Poco15NumberFormatter7append0ERSsii
    libPocoFoundation.dll._ZN4Poco15NumberFormatter7append0ERSsji
    libPocoFoundation.dll._ZN4Poco15NumberFormatter7append0ERSsli
    libPocoFoundation.dll._ZN4Poco15NumberFormatter7append0ERSsmi
    libPocoFoundation.dll._ZN4Poco15NumberFormatter7append0ERSsxi
    libPocoFoundation.dll._ZN4Poco15NumberFormatter7append0ERSsyi
    libPocoFoundation.dll._ZN4Poco15NumberFormatter9appendHexERSsi
    libPocoFoundation.dll._ZN4Poco15NumberFormatter9appendHexERSsii
    libPocoFoundation.dll._ZN4Poco15NumberFormatter9appendHexERSsj
    libPocoFoundation.dll._ZN4Poco15NumberFormatter9appendHexERSsji
    libPocoFoundation.dll._ZN4Poco15NumberFormatter9appendHexERSsl
    libPocoFoundation.dll._ZN4Poco15NumberFormatter9appendHexERSsli
    libPocoFoundation.dll._ZN4Poco15NumberFormatter9appendHexERSsm
    libPocoFoundation.dll._ZN4Poco15NumberFormatter9appendHexERSsmi
    libPocoFoundation.dll._ZN4Poco15NumberFormatter9appendHexERSsx
    libPocoFoundation.dll._ZN4Poco15NumberFormatter9appendHexERSsxi
    libPocoFoundation.dll._ZN4Poco15NumberFormatter9appendHexERSsy
    libPocoFoundation.dll._ZN4Poco15NumberFormatter9appendHexERSsyi
    libPocoFoundation.dll._ZN4Poco15PipeInputStreamC1ERKNS_4PipeE
    libPocoFoundation.dll._ZN4Poco15PipeInputStreamC2ERKNS_4PipeE
    libPocoFoundation.dll._ZN4Poco15PipeInputStreamD0Ev
    libPocoFoundation.dll._ZN4Poco15PipeInputStreamD1Ev
    libPocoFoundation.dll._ZN4Poco15PipeInputStreamD2Ev
    libPocoFoundation.dll._ZN4Poco15SignalExceptionC1ERKS0_
    libPocoFoundation.dll._ZN4Poco15SignalExceptionC1ERKSsRKNS_9ExceptionEi
    libPocoFoundation.dll._ZN4Poco15SignalExceptionC1ERKSsS2_i
    libPocoFoundation.dll._ZN4Poco15SignalExceptionC1ERKSsi
    libPocoFoundation.dll._ZN4Poco15SignalExceptionC1Ei
    libPocoFoundation.dll._ZN4Poco15SignalExceptionC2ERKS0_
    libPocoFoundation.dll._ZN4Poco15SignalExceptionC2ERKSsRKNS_9ExceptionEi
    libPocoFoundation.dll._ZN4Poco15SignalExceptionC2ERKSsS2_i
    libPocoFoundation.dll._ZN4Poco15SignalExceptionC2ERKSsi
    libPocoFoundation.dll._ZN4Poco15SignalExceptionC2Ei
    libPocoFoundation.dll._ZN4Poco15SignalExceptionD0Ev
    libPocoFoundation.dll._ZN4Poco15SignalExceptionD1Ev
    libPocoFoundation.dll._ZN4Poco15SignalExceptionD2Ev
    libPocoFoundation.dll._ZN4Poco15SignalExceptionaSERKS0_
    libPocoFoundation.dll._ZN4Poco15SplitterChannel10addChannelEPNS_7ChannelE
    libPocoFoundation.dll._ZN4Poco15SplitterChannel11setPropertyERKSsS2_
    libPocoFoundation.dll._ZN4Poco15SplitterChannel13removeChannelEPNS_7ChannelE
    libPocoFoundation.dll._ZN4Poco15SplitterChannel3logERKNS_7MessageE
    libPocoFoundation.dll._ZN4Poco15SplitterChannel5closeEv
    libPocoFoundation.dll._ZN4Poco15SplitterChannelC1Ev
    libPocoFoundation.dll._ZN4Poco15SplitterChannelC2Ev
    libPocoFoundation.dll._ZN4Poco15SplitterChannelD0Ev
    libPocoFoundation.dll._ZN4Poco15SplitterChannelD1Ev
    libPocoFoundation.dll._ZN4Poco15SplitterChannelD2Ev
    libPocoFoundation.dll._ZN4Poco15StreamTokenizer14attachToStreamERSi
    libPocoFoundation.dll._ZN4Poco15StreamTokenizer4nextEv
    libPocoFoundation.dll._ZN4Poco15StreamTokenizer8addTokenEPNS_5TokenE
    libPocoFoundation.dll._ZN4Poco15StreamTokenizer8addTokenEPNS_5TokenEb
    libPocoFoundation.dll._ZN4Poco15StreamTokenizerC1ERSi
    libPocoFoundation.dll._ZN4Poco15StreamTokenizerC1Ev
    libPocoFoundation.dll._ZN4Poco15StreamTokenizerC2ERSi
    libPocoFoundation.dll._ZN4Poco15StreamTokenizerC2Ev
    libPocoFoundation.dll._ZN4Poco15StreamTokenizerD0Ev
    libPocoFoundation.dll._ZN4Poco15StreamTokenizerD1Ev
    libPocoFoundation.dll._ZN4Poco15StreamTokenizerD2Ev
    libPocoFoundation.dll._ZN4Poco15StringTokenizerC1ERKSsS2_i
    libPocoFoundation.dll._ZN4Poco15StringTokenizerC2ERKSsS2_i
    libPocoFoundation.dll._ZN4Poco15StringTokenizerD1Ev
    libPocoFoundation.dll._ZN4Poco15StringTokenizerD2Ev
    libPocoFoundation.dll._ZN4Poco15SyntaxExceptionC1ERKS0_
    libPocoFoundation.dll._ZN4Poco15SyntaxExceptionC1ERKSsRKNS_9ExceptionEi
    libPocoFoundation.dll._ZN4Poco15SyntaxExceptionC1ERKSsS2_i
    libPocoFoundation.dll._ZN4Poco15SyntaxExceptionC1ERKSsi
    libPocoFoundation.dll._ZN4Poco15SyntaxExceptionC1Ei
    libPocoFoundation.dll._ZN4Poco15SyntaxExceptionC2ERKS0_
    libPocoFoundation.dll._ZN4Poco15SyntaxExceptionC2ERKSsRKNS_9ExceptionEi
    libPocoFoundation.dll._ZN4Poco15SyntaxExceptionC2ERKSsS2_i
    libPocoFoundation.dll._ZN4Poco15SyntaxExceptionC2ERKSsi
    libPocoFoundation.dll._ZN4Poco15SyntaxExceptionC2Ei
    libPocoFoundation.dll._ZN4Poco15SyntaxExceptionD0Ev
    libPocoFoundation.dll._ZN4Poco15SyntaxExceptionD1Ev
    libPocoFoundation.dll._ZN4Poco15SyntaxExceptionD2Ev
    libPocoFoundation.dll._ZN4Poco15SyntaxExceptionaSERKS0_
    libPocoFoundation.dll._ZN4Poco15SystemExceptionC1ERKS0_
    libPocoFoundation.dll._ZN4Poco15SystemExceptionC1ERKSsRKNS_9ExceptionEi
    libPocoFoundation.dll._ZN4Poco15SystemExceptionC1ERKSsS2_i
    libPocoFoundation.dll._ZN4Poco15SystemExceptionC1ERKSsi
    libPocoFoundation.dll._ZN4Poco15SystemExceptionC1Ei
    libPocoFoundation.dll._ZN4Poco15SystemExceptionC2ERKS0_
    libPocoFoundation.dll._ZN4Poco15SystemExceptionC2ERKSsRKNS_9ExceptionEi
    libPocoFoundation.dll._ZN4Poco15SystemExceptionC2ERKSsS2_i
    libPocoFoundation.dll._ZN4Poco15SystemExceptionC2ERKSsi
    libPocoFoundation.dll._ZN4Poco15SystemExceptionC2Ei
    libPocoFoundation.dll._ZN4Poco15SystemExceptionD0Ev
    libPocoFoundation.dll._ZN4Poco15SystemExceptionD1Ev
    libPocoFoundation.dll._ZN4Poco15SystemExceptionD2Ev
    libPocoFoundation.dll._ZN4Poco15SystemExceptionaSERKS0_
    libPocoFoundation.dll._ZN4Poco15TLSAbstractSlotC1Ev
    libPocoFoundation.dll._ZN4Poco15TLSAbstractSlotC2Ev
    libPocoFoundation.dll._ZN4Poco15TLSAbstractSlotD0Ev
    libPocoFoundation.dll._ZN4Poco15TLSAbstractSlotD1Ev
    libPocoFoundation.dll._ZN4Poco15TLSAbstractSlotD2Ev
    libPocoFoundation.dll._ZN4Poco15TeeOutputStreamC1ERSo
    libPocoFoundation.dll._ZN4Poco15TeeOutputStreamC1Ev
    libPocoFoundation.dll._ZN4Poco15TeeOutputStreamC2ERSo
    libPocoFoundation.dll._ZN4Poco15TeeOutputStreamC2Ev
    libPocoFoundation.dll._ZN4Poco15TeeOutputStreamD0Ev
    libPocoFoundation.dll._ZN4Poco15TeeOutputStreamD1Ev
    libPocoFoundation.dll._ZN4Poco15TeeOutputStreamD2Ev
    libPocoFoundation.dll._ZN4Poco15URIStreamOpener13defaultOpenerEv
    libPocoFoundation.dll._ZN4Poco15URIStreamOpener14supportsSchemeERKSs
    libPocoFoundation.dll._ZN4Poco15URIStreamOpener21registerStreamFactoryERKSsPNS_16URIStreamFactoryE
    libPocoFoundation.dll._ZN4Poco15URIStreamOpener23unregisterStreamFactoryERKSs
    libPocoFoundation.dll._ZN4Poco15URIStreamOpenerC1Ev
    libPocoFoundation.dll._ZN4Poco15URIStreamOpenerC2Ev
    libPocoFoundation.dll._ZN4Poco15URIStreamOpenerD1Ev
    libPocoFoundation.dll._ZN4Poco15URIStreamOpenerD2Ev
    libPocoFoundation.dll._ZN4Poco15WhitespaceToken5startEcRSi
    libPocoFoundation.dll._ZN4Poco15WhitespaceToken6finishERSi
    libPocoFoundation.dll._ZN4Poco15WhitespaceTokenC1Ev
    libPocoFoundation.dll._ZN4Poco15WhitespaceTokenC2Ev
    libPocoFoundation.dll._ZN4Poco15WhitespaceTokenD0Ev
    libPocoFoundation.dll._ZN4Poco15WhitespaceTokenD1Ev
    libPocoFoundation.dll._ZN4Poco15WhitespaceTokenD2Ev
    libPocoFoundation.dll._ZN4Poco16AbstractObserverC1ERKS0_
    libPocoFoundation.dll._ZN4Poco16AbstractObserverC1Ev
    libPocoFoundation.dll._ZN4Poco16AbstractObserverC2ERKS0_
    libPocoFoundation.dll._ZN4Poco16AbstractObserverC2Ev
    libPocoFoundation.dll._ZN4Poco16AbstractObserverD0Ev
    libPocoFoundation.dll._ZN4Poco16AbstractObserverD1Ev
    libPocoFoundation.dll._ZN4Poco16AbstractObserverD2Ev
    libPocoFoundation.dll._ZN4Poco16AbstractObserveraSERKS0_
    libPocoFoundation.dll._ZN4Poco16ActiveDispatcher3runEv
    libPocoFoundation.dll._ZN4Poco16ActiveDispatcher4stopEv
    libPocoFoundation.dll._ZN4Poco16ActiveDispatcher5startENS_7AutoPtrINS_18ActiveRunnableBaseEEE
    libPocoFoundation.dll._ZN4Poco16ActiveDispatcher6cancelEv
    libPocoFoundation.dll._ZN4Poco16ActiveDispatcherC1ENS_6Thread8PriorityE
    libPocoFoundation.dll._ZN4Poco16ActiveDispatcherC1Ev
    libPocoFoundation.dll._ZN4Poco16ActiveDispatcherC2ENS_6Thread8PriorityE
    libPocoFoundation.dll._ZN4Poco16ActiveDispatcherC2Ev
    libPocoFoundation.dll._ZN4Poco16ActiveDispatcherD0Ev
    libPocoFoundation.dll._ZN4Poco16ActiveDispatcherD1Ev
    libPocoFoundation.dll._ZN4Poco16ActiveDispatcherD2Ev
    libPocoFoundation.dll._ZN4Poco16BadCastExceptionC1ERKS0_
    libPocoFoundation.dll._ZN4Poco16BadCastExceptionC1ERKSsRKNS_9ExceptionEi
    libPocoFoundation.dll._ZN4Poco16BadCastExceptionC1ERKSsS2_i
    libPocoFoundation.dll._ZN4Poco16BadCastExceptionC1ERKSsi
    libPocoFoundation.dll._ZN4Poco16BadCastExceptionC1Ei
    libPocoFoundation.dll._ZN4Poco16BadCastExceptionC2ERKS0_
    libPocoFoundation.dll._ZN4Poco16BadCastExceptionC2ERKSsRKNS_9ExceptionEi
    libPocoFoundation.dll._ZN4Poco16BadCastExceptionC2ERKSsS2_i
    libPocoFoundation.dll._ZN4Poco16BadCastExceptionC2ERKSsi
    libPocoFoundation.dll._ZN4Poco16BadCastExceptionC2Ei
    libPocoFoundation.dll._ZN4Poco16BadCastExceptionD0Ev
    libPocoFoundation.dll._ZN4Poco16BadCastExceptionD1Ev
    libPocoFoundation.dll._ZN4Poco16BadCastExceptionD2Ev
    libPocoFoundation.dll._ZN4Poco16BadCastExceptionaSERKS0_
    libPocoFoundation.dll._ZN4Poco16Base64DecoderBuf11IN_ENCODINGE
    libPocoFoundation.dll._ZN4Poco16Base64DecoderBuf14readFromDeviceEv
    libPocoFoundation.dll._ZN4Poco16Base64DecoderBuf16IN_ENCODING_INITE
    libPocoFoundation.dll._ZN4Poco16Base64DecoderBuf7readOneEv
    libPocoFoundation.dll._ZN4Poco16Base64DecoderBufC1ERSi
    libPocoFoundation.dll._ZN4Poco16Base64DecoderBufC2ERSi
    libPocoFoundation.dll._ZN4Poco16Base64DecoderBufD0Ev
    libPocoFoundation.dll._ZN4Poco16Base64DecoderBufD1Ev
    libPocoFoundation.dll._ZN4Poco16Base64DecoderBufD2Ev
    libPocoFoundation.dll._ZN4Poco16Base64DecoderIOS5rdbufEv
    libPocoFoundation.dll._ZN4Poco16Base64DecoderIOSC1ERSi
    libPocoFoundation.dll._ZN4Poco16Base64DecoderIOSC2ERSi
    libPocoFoundation.dll._ZN4Poco16Base64DecoderIOSD0Ev
    libPocoFoundation.dll._ZN4Poco16Base64DecoderIOSD1Ev
    libPocoFoundation.dll._ZN4Poco16Base64DecoderIOSD2Ev
    libPocoFoundation.dll._ZN4Poco16Base64EncoderBuf12OUT_ENCODINGE
    libPocoFoundation.dll._ZN4Poco16Base64EncoderBuf13setLineLengthEi
    libPocoFoundation.dll._ZN4Poco16Base64EncoderBuf13writeToDeviceEc
    libPocoFoundation.dll._ZN4Poco16Base64EncoderBuf5closeEv
    libPocoFoundation.dll._ZN4Poco16Base64EncoderBufC1ERSo
    libPocoFoundation.dll._ZN4Poco16Base64EncoderBufC2ERSo
    libPocoFoundation.dll._ZN4Poco16Base64EncoderBufD0Ev
    libPocoFoundation.dll._ZN4Poco16Base64EncoderBufD1Ev
    libPocoFoundation.dll._ZN4Poco16Base64EncoderBufD2Ev
    libPocoFoundation.dll._ZN4Poco16Base64EncoderIOS5closeEv
    libPocoFoundation.dll._ZN4Poco16Base64EncoderIOS5rdbufEv
    libPocoFoundation.dll._ZN4Poco16Base64EncoderIOSC1ERSo
    libPocoFoundation.dll._ZN4Poco16Base64EncoderIOSC2ERSo
    libPocoFoundation.dll._ZN4Poco16Base64EncoderIOSD0Ev
    libPocoFoundation.dll._ZN4Poco16Base64EncoderIOSD1Ev
    libPocoFoundation.dll._ZN4Poco16Base64EncoderIOSD2Ev
    libPocoFoundation.dll._ZN4Poco16DynamicAnyHolderC1Ev
    libPocoFoundation.dll._ZN4Poco16DynamicAnyHolderC2Ev
    libPocoFoundation.dll._ZN4Poco16DynamicAnyHolderD0Ev
    libPocoFoundation.dll._ZN4Poco16DynamicAnyHolderD1Ev
    libPocoFoundation.dll._ZN4Poco16DynamicAnyHolderD2Ev
    libPocoFoundation.dll._ZN4Poco16FileOutputStreamC1ERKSsSt13_Ios_Openmode
    libPocoFoundation.dll._ZN4Poco16FileOutputStreamC1Ev
    libPocoFoundation.dll._ZN4Poco16FileOutputStreamC2ERKSsSt13_Ios_Openmode
    libPocoFoundation.dll._ZN4Poco16FileOutputStreamC2Ev
    libPocoFoundation.dll._ZN4Poco16FileOutputStreamD0Ev
    libPocoFoundation.dll._ZN4Poco16FileOutputStreamD1Ev
    libPocoFoundation.dll._ZN4Poco16FileOutputStreamD2Ev
    libPocoFoundation.dll._ZN4Poco16HexBinaryDecoderC1ERSi
    libPocoFoundation.dll._ZN4Poco16HexBinaryDecoderC2ERSi
    libPocoFoundation.dll._ZN4Poco16HexBinaryDecoderD0Ev
    libPocoFoundation.dll._ZN4Poco16HexBinaryDecoderD1Ev
    libPocoFoundation.dll._ZN4Poco16HexBinaryDecoderD2Ev
    libPocoFoundation.dll._ZN4Poco16HexBinaryEncoderC1ERSo
    libPocoFoundation.dll._ZN4Poco16HexBinaryEncoderC2ERSo
    libPocoFoundation.dll._ZN4Poco16HexBinaryEncoderD0Ev
    libPocoFoundation.dll._ZN4Poco16HexBinaryEncoderD1Ev
    libPocoFoundation.dll._ZN4Poco16HexBinaryEncoderD2Ev
    libPocoFoundation.dll._ZN4Poco16NullOutputStreamC1Ev
    libPocoFoundation.dll._ZN4Poco16NullOutputStreamC2Ev
    libPocoFoundation.dll._ZN4Poco16NullOutputStreamD0Ev
    libPocoFoundation.dll._ZN4Poco16NullOutputStreamD1Ev
    libPocoFoundation.dll._ZN4Poco16NullOutputStreamD2Ev
    libPocoFoundation.dll._ZN4Poco16PatternFormatter10PROP_TIMESE
    libPocoFoundation.dll._ZN4Poco16PatternFormatter11setPropertyERKSsS2_
    libPocoFoundation.dll._ZN4Poco16PatternFormatter12PROP_PATTERNE
    libPocoFoundation.dll._ZN4Poco16PatternFormatter15getPriorityNameEi
    libPocoFoundation.dll._ZN4Poco16PatternFormatter6formatERKNS_7MessageERSs
    libPocoFoundation.dll._ZN4Poco16PatternFormatterC1ERKSs
    libPocoFoundation.dll._ZN4Poco16PatternFormatterC1Ev
    libPocoFoundation.dll._ZN4Poco16PatternFormatterC2ERKSs
    libPocoFoundation.dll._ZN4Poco16PatternFormatterC2Ev
    libPocoFoundation.dll._ZN4Poco16PatternFormatterD0Ev
    libPocoFoundation.dll._ZN4Poco16PatternFormatterD1Ev
    libPocoFoundation.dll._ZN4Poco16PatternFormatterD2Ev
    libPocoFoundation.dll._ZN4Poco16PipeOutputStreamC1ERKNS_4PipeE
    libPocoFoundation.dll._ZN4Poco16PipeOutputStreamC2ERKNS_4PipeE
    libPocoFoundation.dll._ZN4Poco16PipeOutputStreamD0Ev
    libPocoFoundation.dll._ZN4Poco16PipeOutputStreamD1Ev
    libPocoFoundation.dll._ZN4Poco16PipeOutputStreamD2Ev
    libPocoFoundation.dll._ZN4Poco16RefCountedObjectC1Ev
    libPocoFoundation.dll._ZN4Poco16RefCountedObjectC2Ev
    libPocoFoundation.dll._ZN4Poco16RefCountedObjectD0Ev
    libPocoFoundation.dll._ZN4Poco16RefCountedObjectD1Ev
    libPocoFoundation.dll._ZN4Poco16RefCountedObjectD2Ev
    libPocoFoundation.dll._ZN4Poco16RuntimeExceptionC1ERKS0_
    libPocoFoundation.dll._ZN4Poco16RuntimeExceptionC1ERKSsRKNS_9ExceptionEi
    libPocoFoundation.dll._ZN4Poco16RuntimeExceptionC1ERKSsS2_i
    libPocoFoundation.dll._ZN4Poco16RuntimeExceptionC1ERKSsi
    libPocoFoundation.dll._ZN4Poco16RuntimeExceptionC1Ei
    libPocoFoundation.dll._ZN4Poco16RuntimeExceptionC2ERKS0_
    libPocoFoundation.dll._ZN4Poco16RuntimeExceptionC2ERKSsRKNS_9ExceptionEi
    libPocoFoundation.dll._ZN4Poco16RuntimeExceptionC2ERKSsS2_i
    libPocoFoundation.dll._ZN4Poco16RuntimeExceptionC2ERKSsi
    libPocoFoundation.dll._ZN4Poco16RuntimeExceptionC2Ei
    libPocoFoundation.dll._ZN4Poco16RuntimeExceptionD0Ev
    libPocoFoundation.dll._ZN4Poco16RuntimeExceptionD1Ev
    libPocoFoundation.dll._ZN4Poco16RuntimeExceptionD2Ev
    libPocoFoundation.dll._ZN4Poco16RuntimeExceptionaSERKS0_
    libPocoFoundation.dll._ZN4Poco16SharedMemoryImpl3mapEv
    libPocoFoundation.dll._ZN4Poco16SharedMemoryImpl5closeEv
    libPocoFoundation.dll._ZN4Poco16SharedMemoryImpl5unmapEv
    libPocoFoundation.dll._ZN4Poco16SharedMemoryImplC1ERKNS_4FileENS_12SharedMemory10AccessModeEPKv
    libPocoFoundation.dll._ZN4Poco16SharedMemoryImplC1ERKSsjNS_12SharedMemory10AccessModeEPKvb
    libPocoFoundation.dll._ZN4Poco16SharedMemoryImplC2ERKNS_4FileENS_12SharedMemory10AccessModeEPKv
    libPocoFoundation.dll._ZN4Poco16SharedMemoryImplC2ERKSsjNS_12SharedMemory10AccessModeEPKvb
    libPocoFoundation.dll._ZN4Poco16SharedMemoryImplD0Ev
    libPocoFoundation.dll._ZN4Poco16SharedMemoryImplD1Ev
    libPocoFoundation.dll._ZN4Poco16SharedMemoryImplD2Ev
    libPocoFoundation.dll._ZN4Poco16TaskNotificationC1EPNS_4TaskE
    libPocoFoundation.dll._ZN4Poco16TaskNotificationC2EPNS_4TaskE
    libPocoFoundation.dll._ZN4Poco16TaskNotificationD0Ev
    libPocoFoundation.dll._ZN4Poco16TaskNotificationD1Ev
    libPocoFoundation.dll._ZN4Poco16TaskNotificationD2Ev
    libPocoFoundation.dll._ZN4Poco16TimeoutExceptionC1ERKS0_
    libPocoFoundation.dll._ZN4Poco16TimeoutExceptionC1ERKSsRKNS_9ExceptionEi
    libPocoFoundation.dll._ZN4Poco16TimeoutExceptionC1ERKSsS2_i
    libPocoFoundation.dll._ZN4Poco16TimeoutExceptionC1ERKSsi
    libPocoFoundation.dll._ZN4Poco16TimeoutExceptionC1Ei
    libPocoFoundation.dll._ZN4Poco16TimeoutExceptionC2ERKS0_
    libPocoFoundation.dll._ZN4Poco16TimeoutExceptionC2ERKSsRKNS_9ExceptionEi
    libPocoFoundation.dll._ZN4Poco16TimeoutExceptionC2ERKSsS2_i
    libPocoFoundation.dll._ZN4Poco16TimeoutExceptionC2ERKSsi
    libPocoFoundation.dll._ZN4Poco16TimeoutExceptionC2Ei
    libPocoFoundation.dll._ZN4Poco16TimeoutExceptionD0Ev
    libPocoFoundation.dll._ZN4Poco16TimeoutExceptionD1Ev
    libPocoFoundation.dll._ZN4Poco16TimeoutExceptionD2Ev
    libPocoFoundation.dll._ZN4Poco16TimeoutExceptionaSERKS0_
    libPocoFoundation.dll._ZN4Poco16URIStreamFactoryC1Ev
    libPocoFoundation.dll._ZN4Poco16URIStreamFactoryC2Ev
    libPocoFoundation.dll._ZN4Poco16URIStreamFactoryD0Ev
    libPocoFoundation.dll._ZN4Poco16URIStreamFactoryD1Ev
    libPocoFoundation.dll._ZN4Poco16URIStreamFactoryD2Ev
    libPocoFoundation.dll._ZN4Poco16UnicodeConverter6toUTF8EPKwRSs
    libPocoFoundation.dll._ZN4Poco16UnicodeConverter6toUTF8EPKwiRSs
    libPocoFoundation.dll._ZN4Poco16UnicodeConverter6toUTF8ERKSbIwSt11char_traitsIwESaIwEERSs
    libPocoFoundation.dll._ZN4Poco16UnicodeConverter7toUTF16EPKcRSbIwSt11char_traitsIwESaIwEE
    libPocoFoundation.dll._ZN4Poco16UnicodeConverter7toUTF16EPKciRSbIwSt11char_traitsIwESaIwEE
    libPocoFoundation.dll._ZN4Poco16UnicodeConverter7toUTF16ERKSsRSbIwSt11char_traitsIwESaIwEE
    libPocoFoundation.dll._ZN4Poco17ArchiveCompressor12compressImplERKSs
    libPocoFoundation.dll._ZN4Poco17ArchiveCompressorD0Ev
    libPocoFoundation.dll._ZN4Poco17ArchiveCompressorD1Ev
    libPocoFoundation.dll._ZN4Poco17BugcheckExceptionC1ERKS0_
    libPocoFoundation.dll._ZN4Poco17BugcheckExceptionC1ERKSsRKNS_9ExceptionEi
    libPocoFoundation.dll._ZN4Poco17BugcheckExceptionC1ERKSsS2_i
    libPocoFoundation.dll._ZN4Poco17BugcheckExceptionC1ERKSsi
    libPocoFoundation.dll._ZN4Poco17BugcheckExceptionC1Ei
    libPocoFoundation.dll._ZN4Poco17BugcheckExceptionC2ERKS0_
    libPocoFoundation.dll._ZN4Poco17BugcheckExceptionC2ERKSsRKNS_9ExceptionEi
    libPocoFoundation.dll._ZN4Poco17BugcheckExceptionC2ERKSsS2_i
    libPocoFoundation.dll._ZN4Poco17BugcheckExceptionC2ERKSsi
    libPocoFoundation.dll._ZN4Poco17BugcheckExceptionC2Ei
    libPocoFoundation.dll._ZN4Poco17BugcheckExceptionD0Ev
    libPocoFoundation.dll._ZN4Poco17BugcheckExceptionD1Ev
    libPocoFoundation.dll._ZN4Poco17BugcheckExceptionD2Ev
    libPocoFoundation.dll._ZN4Poco17BugcheckExceptionaSERKS0_
    libPocoFoundation.dll._ZN4Poco17CountingStreamBuf13writeToDeviceEc
    libPocoFoundation.dll._ZN4Poco17CountingStreamBuf14readFromDeviceEv
    libPocoFoundation.dll._ZN4Poco17CountingStreamBuf20setCurrentLineNumberEi
    libPocoFoundation.dll._ZN4Poco17CountingStreamBuf5resetEv
    libPocoFoundation.dll._ZN4Poco17CountingStreamBufC1ERSi
    libPocoFoundation.dll._ZN4Poco17CountingStreamBufC1ERSo
    libPocoFoundation.dll._ZN4Poco17CountingStreamBufC1Ev
    libPocoFoundation.dll._ZN4Poco17CountingStreamBufC2ERSi
    libPocoFoundation.dll._ZN4Poco17CountingStreamBufC2ERSo
    libPocoFoundation.dll._ZN4Poco17CountingStreamBufC2Ev
    libPocoFoundation.dll._ZN4Poco17CountingStreamBufD0Ev
    libPocoFoundation.dll._ZN4Poco17CountingStreamBufD1Ev
    libPocoFoundation.dll._ZN4Poco17CountingStreamBufD2Ev
    libPocoFoundation.dll._ZN4Poco17DateTimeFormatter6appendERSsRKNS_13LocalDateTimeERKSs
    libPocoFoundation.dll._ZN4Poco17DateTimeFormatter6appendERSsRKNS_8DateTimeERKSsi
    libPocoFoundation.dll._ZN4Poco17DateTimeFormatter6appendERSsRKNS_8TimespanERKSs
    libPocoFoundation.dll._ZN4Poco17DateTimeFormatter6tzdISOERSsi
    libPocoFoundation.dll._ZN4Poco17DateTimeFormatter6tzdRFCERSsi
    libPocoFoundation.dll._ZN4Poco17DigestInputStreamC1ERNS_12DigestEngineERSi
    libPocoFoundation.dll._ZN4Poco17DigestInputStreamC2ERNS_12DigestEngineERSi
    libPocoFoundation.dll._ZN4Poco17DigestInputStreamD0Ev
    libPocoFoundation.dll._ZN4Poco17DigestInputStreamD1Ev
    libPocoFoundation.dll._ZN4Poco17DigestInputStreamD2Ev
    libPocoFoundation.dll._ZN4Poco17DirectoryIteratorC1ERKNS_4FileE
    libPocoFoundation.dll._ZN4Poco17DirectoryIteratorC1ERKNS_4PathE
    libPocoFoundation.dll._ZN4Poco17DirectoryIteratorC1ERKS0_
    libPocoFoundation.dll._ZN4Poco17DirectoryIteratorC1ERKSs
    libPocoFoundation.dll._ZN4Poco17DirectoryIteratorC1Ev
    libPocoFoundation.dll._ZN4Poco17DirectoryIteratorC2ERKNS_4FileE
    libPocoFoundation.dll._ZN4Poco17DirectoryIteratorC2ERKNS_4PathE
    libPocoFoundation.dll._ZN4Poco17DirectoryIteratorC2ERKS0_
    libPocoFoundation.dll._ZN4Poco17DirectoryIteratorC2ERKSs
    libPocoFoundation.dll._ZN4Poco17DirectoryIteratorC2Ev
    libPocoFoundation.dll._ZN4Poco17DirectoryIteratorD1Ev
    libPocoFoundation.dll._ZN4Poco17DirectoryIteratorD2Ev
    libPocoFoundation.dll._ZN4Poco17DirectoryIteratoraSERKNS_4FileE
    libPocoFoundation.dll._ZN4Poco17DirectoryIteratoraSERKNS_4PathE
    libPocoFoundation.dll._ZN4Poco17DirectoryIteratoraSERKS0_
    libPocoFoundation.dll._ZN4Poco17DirectoryIteratoraSERKSs
    libPocoFoundation.dll._ZN4Poco17DirectoryIteratorppEi
    libPocoFoundation.dll._ZN4Poco17DirectoryIteratorppEv
    libPocoFoundation.dll._ZN4Poco17FPEnvironmentImpl10isFlagImplENS0_8FlagImplE
    libPocoFoundation.dll._ZN4Poco17FPEnvironmentImpl12copySignImplEee
    libPocoFoundation.dll._ZN4Poco17FPEnvironmentImpl13_roundingModeE
    libPocoFoundation.dll._ZN4Poco17FPEnvironmentImpl14clearFlagsImplEv
    libPocoFoundation.dll._ZN4Poco17FPEnvironmentImpl15keepCurrentImplEv
    libPocoFoundation.dll._ZN4Poco17FPEnvironmentImpl19getRoundingModeImplEv
    libPocoFoundation.dll._ZN4Poco17FPEnvironmentImpl19setRoundingModeImplENS0_16RoundingModeImplE
    libPocoFoundation.dll._ZN4Poco17FPEnvironmentImplC1ERKS0_
    libPocoFoundation.dll._ZN4Poco17FPEnvironmentImplC1Ev
    libPocoFoundation.dll._ZN4Poco17FPEnvironmentImplC2ERKS0_
    libPocoFoundation.dll._ZN4Poco17FPEnvironmentImplC2Ev
    libPocoFoundation.dll._ZN4Poco17FPEnvironmentImplD1Ev
    libPocoFoundation.dll._ZN4Poco17FPEnvironmentImplD2Ev
    libPocoFoundation.dll._ZN4Poco17FPEnvironmentImplaSERKS0_
    libPocoFoundation.dll._ZN4Poco17FileStreamFactory4openERKNS_3URIE
    libPocoFoundation.dll._ZN4Poco17FileStreamFactory4openERKNS_4PathE
    libPocoFoundation.dll._ZN4Poco17FileStreamFactoryC1Ev
    libPocoFoundation.dll._ZN4Poco17FileStreamFactoryC2Ev
    libPocoFoundation.dll._ZN4Poco17FileStreamFactoryD0Ev
    libPocoFoundation.dll._ZN4Poco17FileStreamFactoryD1Ev
    libPocoFoundation.dll._ZN4Poco17FileStreamFactoryD2Ev
    libPocoFoundation.dll._ZN4Poco17FormattingChannel10setChannelEPNS_7ChannelE
    libPocoFoundation.dll._ZN4Poco17FormattingChannel11setPropertyERKSsS2_
    libPocoFoundation.dll._ZN4Poco17FormattingChannel12setFormatterEPNS_9FormatterE
    libPocoFoundation.dll._ZN4Poco17FormattingChannel3logERKNS_7MessageE
    libPocoFoundation.dll._ZN4Poco17FormattingChannel4openEv
    libPocoFoundation.dll._ZN4Poco17FormattingChannel5closeEv
    libPocoFoundation.dll._ZN4Poco17FormattingChannelC1EPNS_9FormatterE
    libPocoFoundation.dll._ZN4Poco17FormattingChannelC1EPNS_9FormatterEPNS_7ChannelE
    libPocoFoundation.dll._ZN4Poco17FormattingChannelC1Ev
    libPocoFoundation.dll._ZN4Poco17FormattingChannelC2EPNS_9FormatterE
    libPocoFoundation.dll._ZN4Poco17FormattingChannelC2EPNS_9FormatterEPNS_7ChannelE
    libPocoFoundation.dll._ZN4Poco17FormattingChannelC2Ev
    libPocoFoundation.dll._ZN4Poco17FormattingChannelD0Ev
    libPocoFoundation.dll._ZN4Poco17FormattingChannelD1Ev
    libPocoFoundation.dll._ZN4Poco17FormattingChannelD2Ev
    libPocoFoundation.dll._ZN4Poco17MemoryInputStreamC1EPKci
    libPocoFoundation.dll._ZN4Poco17MemoryInputStreamC2EPKci
    libPocoFoundation.dll._ZN4Poco17MemoryInputStreamD0Ev
    libPocoFoundation.dll._ZN4Poco17MemoryInputStreamD1Ev
    libPocoFoundation.dll._ZN4Poco17MemoryInputStreamD2Ev
    libPocoFoundation.dll._ZN4Poco17NotFoundExceptionC1ERKS0_
    libPocoFoundation.dll._ZN4Poco17NotFoundExceptionC1ERKSsRKNS_9ExceptionEi
    libPocoFoundation.dll._ZN4Poco17NotFoundExceptionC1ERKSsS2_i
    libPocoFoundation.dll._ZN4Poco17NotFoundExceptionC1ERKSsi
    libPocoFoundation.dll._ZN4Poco17NotFoundExceptionC1Ei
    libPocoFoundation.dll._ZN4Poco17NotFoundExceptionC2ERKS0_
    libPocoFoundation.dll._ZN4Poco17NotFoundExceptionC2ERKSsRKNS_9ExceptionEi
    libPocoFoundation.dll._ZN4Poco17NotFoundExceptionC2ERKSsS2_i
    libPocoFoundation.dll._ZN4Poco17NotFoundExceptionC2ERKSsi
    libPocoFoundation.dll._ZN4Poco17NotFoundExceptionC2Ei
    libPocoFoundation.dll._ZN4Poco17NotFoundExceptionD0Ev
    libPocoFoundation.dll._ZN4Poco17NotFoundExceptionD1Ev
    libPocoFoundation.dll._ZN4Poco17NotFoundExceptionD2Ev
    libPocoFoundation.dll._ZN4Poco17NotFoundExceptionaSERKS0_
    libPocoFoundation.dll._ZN4Poco17NotificationQueue10dequeueOneEv
    libPocoFoundation.dll._ZN4Poco17NotificationQueue12defaultQueueEv
    libPocoFoundation.dll._ZN4Poco17NotificationQueue19dequeueNotificationEv
    libPocoFoundation.dll._ZN4Poco17NotificationQueue19enqueueNotificationENS_7AutoPtrINS_12NotificationEEE
    libPocoFoundation.dll._ZN4Poco17NotificationQueue23waitDequeueNotificationEl
    libPocoFoundation.dll._ZN4Poco17NotificationQueue23waitDequeueNotificationEv
    libPocoFoundation.dll._ZN4Poco17NotificationQueue25enqueueUrgentNotificationENS_7AutoPtrINS_12NotificationEEE
    libPocoFoundation.dll._ZN4Poco17NotificationQueue5clearEv
    libPocoFoundation.dll._ZN4Poco17NotificationQueue8dispatchERNS_18NotificationCenterE
    libPocoFoundation.dll._ZN4Poco17NotificationQueue9wakeUpAllEv
    libPocoFoundation.dll._ZN4Poco17NotificationQueueC1Ev
    libPocoFoundation.dll._ZN4Poco17NotificationQueueC2Ev
    libPocoFoundation.dll._ZN4Poco17NotificationQueueD1Ev
    libPocoFoundation.dll._ZN4Poco17NotificationQueueD2Ev
    libPocoFoundation.dll._ZN4Poco17OpenFileExceptionC1ERKS0_
    libPocoFoundation.dll._ZN4Poco17OpenFileExceptionC1ERKSsRKNS_9ExceptionEi
    libPocoFoundation.dll._ZN4Poco17OpenFileExceptionC1ERKSsS2_i
    libPocoFoundation.dll._ZN4Poco17OpenFileExceptionC1ERKSsi
    libPocoFoundation.dll._ZN4Poco17OpenFileExceptionC1Ei
    libPocoFoundation.dll._ZN4Poco17OpenFileExceptionC2ERKS0_
    libPocoFoundation.dll._ZN4Poco17OpenFileExceptionC2ERKSsRKNS_9ExceptionEi
    libPocoFoundation.dll._ZN4Poco17OpenFileExceptionC2ERKSsS2_i
    libPocoFoundation.dll._ZN4Poco17OpenFileExceptionC2ERKSsi
    libPocoFoundation.dll._ZN4Poco17OpenFileExceptionC2Ei
    libPocoFoundation.dll._ZN4Poco17OpenFileExceptionD0Ev
    libPocoFoundation.dll._ZN4Poco17OpenFileExceptionD1Ev
    libPocoFoundation.dll._ZN4Poco17OpenFileExceptionD2Ev
    libPocoFoundation.dll._ZN4Poco17OpenFileExceptionaSERKS0_
    libPocoFoundation.dll._ZN4Poco17ProcessHandleImplC1EPvj
    libPocoFoundation.dll._ZN4Poco17ProcessHandleImplC2EPvj
    libPocoFoundation.dll._ZN4Poco17ProcessHandleImplD0Ev
    libPocoFoundation.dll._ZN4Poco17ProcessHandleImplD1Ev
    libPocoFoundation.dll._ZN4Poco17ProcessHandleImplD2Ev
    libPocoFoundation.dll._ZN4Poco17ProtocolExceptionC1ERKS0_
    libPocoFoundation.dll._ZN4Poco17ProtocolExceptionC1ERKSsRKNS_9ExceptionEi
    libPocoFoundation.dll._ZN4Poco17ProtocolExceptionC1ERKSsS2_i
    libPocoFoundation.dll._ZN4Poco17ProtocolExceptionC1ERKSsi
    libPocoFoundation.dll._ZN4Poco17ProtocolExceptionC1Ei
    libPocoFoundation.dll._ZN4Poco17ProtocolExceptionC2ERKS0_
    libPocoFoundation.dll._ZN4Poco17ProtocolExceptionC2ERKSsRKNS_9ExceptionEi
    libPocoFoundation.dll._ZN4Poco17ProtocolExceptionC2ERKSsS2_i
    libPocoFoundation.dll._ZN4Poco17ProtocolExceptionC2ERKSsi
    libPocoFoundation.dll._ZN4Poco17ProtocolExceptionC2Ei
    libPocoFoundation.dll._ZN4Poco17ProtocolExceptionD0Ev
    libPocoFoundation.dll._ZN4Poco17ProtocolExceptionD1Ev
    libPocoFoundation.dll._ZN4Poco17ProtocolExceptionD2Ev
    libPocoFoundation.dll._ZN4Poco17ProtocolExceptionaSERKS0_
    libPocoFoundation.dll._ZN4Poco17RandomInputStreamC1Ev
    libPocoFoundation.dll._ZN4Poco17RandomInputStreamC2Ev
    libPocoFoundation.dll._ZN4Poco17RandomInputStreamD0Ev
    libPocoFoundation.dll._ZN4Poco17RandomInputStreamD1Ev
    libPocoFoundation.dll._ZN4Poco17RandomInputStreamD2Ev
    libPocoFoundation.dll._ZN4Poco17ReadFileExceptionC1ERKS0_
    libPocoFoundation.dll._ZN4Poco17ReadFileExceptionC1ERKSsRKNS_9ExceptionEi
    libPocoFoundation.dll._ZN4Poco17ReadFileExceptionC1ERKSsS2_i
    libPocoFoundation.dll._ZN4Poco17ReadFileExceptionC1ERKSsi
    libPocoFoundation.dll._ZN4Poco17ReadFileExceptionC1Ei
    libPocoFoundation.dll._ZN4Poco17ReadFileExceptionC2ERKS0_
    libPocoFoundation.dll._ZN4Poco17ReadFileExceptionC2ERKSsRKNS_9ExceptionEi
    libPocoFoundation.dll._ZN4Poco17ReadFileExceptionC2ERKSsS2_i
    libPocoFoundation.dll._ZN4Poco17ReadFileExceptionC2ERKSsi
    libPocoFoundation.dll._ZN4Poco17ReadFileExceptionC2Ei
    libPocoFoundation.dll._ZN4Poco17ReadFileExceptionD0Ev
    libPocoFoundation.dll._ZN4Poco17ReadFileExceptionD1Ev
    libPocoFoundation.dll._ZN4Poco17ReadFileExceptionD2Ev
    libPocoFoundation.dll._ZN4Poco17ReadFileExceptionaSERKS0_
    libPocoFoundation.dll._ZN4Poco17RegularExpression5matchERKSsS2_i
    libPocoFoundation.dll._ZN4Poco17RegularExpression9OVEC_SIZEE
    libPocoFoundation.dll._ZN4Poco17RegularExpressionC1ERKSsib
    libPocoFoundation.dll._ZN4Poco17RegularExpressionC2ERKSsib
    libPocoFoundation.dll._ZN4Poco17RegularExpressionD1Ev
    libPocoFoundation.dll._ZN4Poco17RegularExpressionD2Ev
    libPocoFoundation.dll._ZN4Poco17SharedLibraryImpl10suffixImplEv
    libPocoFoundation.dll._ZN4Poco17SharedLibraryImpl10unloadImplEv
    libPocoFoundation.dll._ZN4Poco17SharedLibraryImpl14findSymbolImplERKSs
    libPocoFoundation.dll._ZN4Poco17SharedLibraryImpl6_mutexE
    libPocoFoundation.dll._ZN4Poco17SharedLibraryImpl8loadImplERKSsi
    libPocoFoundation.dll._ZN4Poco17SharedLibraryImplC1Ev
    libPocoFoundation.dll._ZN4Poco17SharedLibraryImplC2Ev
    libPocoFoundation.dll._ZN4Poco17SharedLibraryImplD1Ev
    libPocoFoundation.dll._ZN4Poco17SharedLibraryImplD2Ev
    libPocoFoundation.dll._ZN4Poco17SimpleFileChannel11setPropertyERKSsS2_
    libPocoFoundation.dll._ZN4Poco17SimpleFileChannel11setRotationERKSs
    libPocoFoundation.dll._ZN4Poco17SimpleFileChannel13PROP_ROTATIONE
    libPocoFoundation.dll._ZN4Poco17SimpleFileChannel18PROP_SECONDARYPATHE
    libPocoFoundation.dll._ZN4Poco17SimpleFileChannel3logERKNS_7MessageE
    libPocoFoundation.dll._ZN4Poco17SimpleFileChannel4openEv
    libPocoFoundation.dll._ZN4Poco17SimpleFileChannel5closeEv
    libPocoFoundation.dll._ZN4Poco17SimpleFileChannel6rotateEv
    libPocoFoundation.dll._ZN4Poco17SimpleFileChannel9PROP_PATHE
    libPocoFoundation.dll._ZN4Poco17SimpleFileChannelC1ERKSs
    libPocoFoundation.dll._ZN4Poco17SimpleFileChannelC1Ev
    libPocoFoundation.dll._ZN4Poco17SimpleFileChannelC2ERKSs
    libPocoFoundation.dll._ZN4Poco17SimpleFileChannelC2Ev
    libPocoFoundation.dll._ZN4Poco17SimpleFileChannelD0Ev
    libPocoFoundation.dll._ZN4Poco17SimpleFileChannelD1Ev
    libPocoFoundation.dll._ZN4Poco17SimpleFileChannelD2Ev
    libPocoFoundation.dll._ZN4Poco18ActiveResultHolderINS_4VoidEE5errorERKNS_9ExceptionE
    libPocoFoundation.dll._ZN4Poco18ActiveResultHolderINS_4VoidEE5errorERKSs
    libPocoFoundation.dll._ZN4Poco18ActiveResultHolderINS_4VoidEED0Ev
    libPocoFoundation.dll._ZN4Poco18ActiveResultHolderINS_4VoidEED1Ev
    libPocoFoundation.dll._ZN4Poco18ActiveRunnableBaseD0Ev
    libPocoFoundation.dll._ZN4Poco18ActiveRunnableBaseD1Ev
    libPocoFoundation.dll._ZN4Poco18ActiveRunnableBaseD2Ev
    libPocoFoundation.dll._ZN4Poco18DeflatingStreamBuf13writeToDeviceEPKci
    libPocoFoundation.dll._ZN4Poco18DeflatingStreamBuf14readFromDeviceEPci
    libPocoFoundation.dll._ZN4Poco18DeflatingStreamBuf4syncEv
    libPocoFoundation.dll._ZN4Poco18DeflatingStreamBuf5closeEv
    libPocoFoundation.dll._ZN4Poco18DeflatingStreamBufC1ERSiNS0_10StreamTypeEi
    libPocoFoundation.dll._ZN4Poco18DeflatingStreamBufC1ERSiii
    libPocoFoundation.dll._ZN4Poco18DeflatingStreamBufC1ERSoNS0_10StreamTypeEi
    libPocoFoundation.dll._ZN4Poco18DeflatingStreamBufC1ERSoii
    libPocoFoundation.dll._ZN4Poco18DeflatingStreamBufC2ERSiNS0_10StreamTypeEi
    libPocoFoundation.dll._ZN4Poco18DeflatingStreamBufC2ERSiii
    libPocoFoundation.dll._ZN4Poco18DeflatingStreamBufC2ERSoNS0_10StreamTypeEi
    libPocoFoundation.dll._ZN4Poco18DeflatingStreamBufC2ERSoii
    libPocoFoundation.dll._ZN4Poco18DeflatingStreamBufD0Ev
    libPocoFoundation.dll._ZN4Poco18DeflatingStreamBufD1Ev
    libPocoFoundation.dll._ZN4Poco18DeflatingStreamBufD2Ev
    libPocoFoundation.dll._ZN4Poco18DigestOutputStream5closeEv
    libPocoFoundation.dll._ZN4Poco18DigestOutputStreamC1ERNS_12DigestEngineE
    libPocoFoundation.dll._ZN4Poco18DigestOutputStreamC1ERNS_12DigestEngineERSo
    libPocoFoundation.dll._ZN4Poco18DigestOutputStreamC2ERNS_12DigestEngineE
    libPocoFoundation.dll._ZN4Poco18DigestOutputStreamC2ERNS_12DigestEngineERSo
    libPocoFoundation.dll._ZN4Poco18DigestOutputStreamD0Ev
    libPocoFoundation.dll._ZN4Poco18DigestOutputStreamD1Ev
    libPocoFoundation.dll._ZN4Poco18DigestOutputStreamD2Ev
    libPocoFoundation.dll._ZN4Poco18InflatingStreamBuf13writeToDeviceEPKci
    libPocoFoundation.dll._ZN4Poco18InflatingStreamBuf14readFromDeviceEPci
    libPocoFoundation.dll._ZN4Poco18InflatingStreamBuf5closeEv
    libPocoFoundation.dll._ZN4Poco18InflatingStreamBuf5resetEv
    libPocoFoundation.dll._ZN4Poco18InflatingStreamBufC1ERSiNS0_10StreamTypeE
    libPocoFoundation.dll._ZN4Poco18InflatingStreamBufC1ERSii
    libPocoFoundation.dll._ZN4Poco18InflatingStreamBufC1ERSoNS0_10StreamTypeE
    libPocoFoundation.dll._ZN4Poco18InflatingStreamBufC1ERSoi
    libPocoFoundation.dll._ZN4Poco18InflatingStreamBufC2ERSiNS0_10StreamTypeE
    libPocoFoundation.dll._ZN4Poco18InflatingStreamBufC2ERSii
    libPocoFoundation.dll._ZN4Poco18InflatingStreamBufC2ERSoNS0_10StreamTypeE
    libPocoFoundation.dll._ZN4Poco18InflatingStreamBufC2ERSoi
    libPocoFoundation.dll._ZN4Poco18InflatingStreamBufD0Ev
    libPocoFoundation.dll._ZN4Poco18InflatingStreamBufD1Ev
    libPocoFoundation.dll._ZN4Poco18InflatingStreamBufD2Ev
    libPocoFoundation.dll._ZN4Poco18MemoryOutputStreamC1EPci
    libPocoFoundation.dll._ZN4Poco18MemoryOutputStreamC2EPci
    libPocoFoundation.dll._ZN4Poco18MemoryOutputStreamD0Ev
    libPocoFoundation.dll._ZN4Poco18MemoryOutputStreamD1Ev
    libPocoFoundation.dll._ZN4Poco18MemoryOutputStreamD2Ev
    libPocoFoundation.dll._ZN4Poco18NotificationCenter11addObserverERKNS_16AbstractObserverE
    libPocoFoundation.dll._ZN4Poco18NotificationCenter13defaultCenterEv
    libPocoFoundation.dll._ZN4Poco18NotificationCenter14removeObserverERKNS_16AbstractObserverE
    libPocoFoundation.dll._ZN4Poco18NotificationCenter16postNotificationENS_7AutoPtrINS_12NotificationEEE
    libPocoFoundation.dll._ZN4Poco18NotificationCenterC1Ev
    libPocoFoundation.dll._ZN4Poco18NotificationCenterC2Ev
    libPocoFoundation.dll._ZN4Poco18NotificationCenterD1Ev
    libPocoFoundation.dll._ZN4Poco18NotificationCenterD2Ev
    libPocoFoundation.dll._ZN4Poco18NullValueExceptionC1ERKS0_
    libPocoFoundation.dll._ZN4Poco18NullValueExceptionC1ERKSsRKNS_9ExceptionEi
    libPocoFoundation.dll._ZN4Poco18NullValueExceptionC1ERKSsS2_i
    libPocoFoundation.dll._ZN4Poco18NullValueExceptionC1ERKSsi
    libPocoFoundation.dll._ZN4Poco18NullValueExceptionC1Ei
    libPocoFoundation.dll._ZN4Poco18NullValueExceptionC2ERKS0_
    libPocoFoundation.dll._ZN4Poco18NullValueExceptionC2ERKSsRKNS_9ExceptionEi
    libPocoFoundation.dll._ZN4Poco18NullValueExceptionC2ERKSsS2_i
    libPocoFoundation.dll._ZN4Poco18NullValueExceptionC2ERKSsi
    libPocoFoundation.dll._ZN4Poco18NullValueExceptionC2Ei
    libPocoFoundation.dll._ZN4Poco18NullValueExceptionD0Ev
    libPocoFoundation.dll._ZN4Poco18NullValueExceptionD1Ev
    libPocoFoundation.dll._ZN4Poco18NullValueExceptionD2Ev
    libPocoFoundation.dll._ZN4Poco18NullValueExceptionaSERKS0_
    libPocoFoundation.dll._ZN4Poco18PurgeByAgeStrategy5purgeERKSs
    libPocoFoundation.dll._ZN4Poco18PurgeByAgeStrategyC1ERKNS_8TimespanE
    libPocoFoundation.dll._ZN4Poco18PurgeByAgeStrategyC2ERKNS_8TimespanE
    libPocoFoundation.dll._ZN4Poco18PurgeByAgeStrategyD0Ev
    libPocoFoundation.dll._ZN4Poco18PurgeByAgeStrategyD1Ev
    libPocoFoundation.dll._ZN4Poco18PurgeByAgeStrategyD2Ev
    libPocoFoundation.dll._ZN4Poco18StreamConverterBuf13writeToDeviceEc
    libPocoFoundation.dll._ZN4Poco18StreamConverterBuf14readFromDeviceEv
    libPocoFoundation.dll._ZN4Poco18StreamConverterBufC1ERSiRKNS_12TextEncodingES4_i
    libPocoFoundation.dll._ZN4Poco18StreamConverterBufC1ERSoRKNS_12TextEncodingES4_i
    libPocoFoundation.dll._ZN4Poco18StreamConverterBufC2ERSiRKNS_12TextEncodingES4_i
    libPocoFoundation.dll._ZN4Poco18StreamConverterBufC2ERSoRKNS_12TextEncodingES4_i
    libPocoFoundation.dll._ZN4Poco18StreamConverterBufD0Ev
    libPocoFoundation.dll._ZN4Poco18StreamConverterBufD1Ev
    libPocoFoundation.dll._ZN4Poco18StreamConverterBufD2Ev
    libPocoFoundation.dll._ZN4Poco18StreamConverterIOS5rdbufEv
    libPocoFoundation.dll._ZN4Poco18StreamConverterIOSC1ERSiRKNS_12TextEncodingES4_i
    libPocoFoundation.dll._ZN4Poco18StreamConverterIOSC1ERSoRKNS_12TextEncodingES4_i
    libPocoFoundation.dll._ZN4Poco18StreamConverterIOSC2ERSiRKNS_12TextEncodingES4_i
    libPocoFoundation.dll._ZN4Poco18StreamConverterIOSC2ERSoRKNS_12TextEncodingES4_i
    libPocoFoundation.dll._ZN4Poco18StreamConverterIOSD0Ev
    libPocoFoundation.dll._ZN4Poco18StreamConverterIOSD1Ev
    libPocoFoundation.dll._ZN4Poco18StreamConverterIOSD2Ev
    libPocoFoundation.dll._ZN4Poco18SynchronizedObjectC1Ev
    libPocoFoundation.dll._ZN4Poco18SynchronizedObjectC2Ev
    libPocoFoundation.dll._ZN4Poco18SynchronizedObjectD0Ev
    libPocoFoundation.dll._ZN4Poco18SynchronizedObjectD1Ev
    libPocoFoundation.dll._ZN4Poco18SynchronizedObjectD2Ev
    libPocoFoundation.dll._ZN4Poco18TextBufferIterator4swapERS0_
    libPocoFoundation.dll._ZN4Poco18TextBufferIteratorC1EPKc
    libPocoFoundation.dll._ZN4Poco18TextBufferIteratorC1EPKcRKNS_12TextEncodingE
    libPocoFoundation.dll._ZN4Poco18TextBufferIteratorC1EPKcS2_RKNS_12TextEncodingE
    libPocoFoundation.dll._ZN4Poco18TextBufferIteratorC1EPKcjRKNS_12TextEncodingE
    libPocoFoundation.dll._ZN4Poco18TextBufferIteratorC1ERKS0_
    libPocoFoundation.dll._ZN4Poco18TextBufferIteratorC1Ev
    libPocoFoundation.dll._ZN4Poco18TextBufferIteratorC2EPKc
    libPocoFoundation.dll._ZN4Poco18TextBufferIteratorC2EPKcRKNS_12TextEncodingE
    libPocoFoundation.dll._ZN4Poco18TextBufferIteratorC2EPKcS2_RKNS_12TextEncodingE
    libPocoFoundation.dll._ZN4Poco18TextBufferIteratorC2EPKcjRKNS_12TextEncodingE
    libPocoFoundation.dll._ZN4Poco18TextBufferIteratorC2ERKS0_
    libPocoFoundation.dll._ZN4Poco18TextBufferIteratorC2Ev
    libPocoFoundation.dll._ZN4Poco18TextBufferIteratorD1Ev
    libPocoFoundation.dll._ZN4Poco18TextBufferIteratorD2Ev
    libPocoFoundation.dll._ZN4Poco18TextBufferIteratoraSERKS0_
    libPocoFoundation.dll._ZN4Poco18TextBufferIteratorppEi
    libPocoFoundation.dll._ZN4Poco18TextBufferIteratorppEv
    libPocoFoundation.dll._ZN4Poco18ThreadLocalStorage3getEPKv
    libPocoFoundation.dll._ZN4Poco18ThreadLocalStorage5clearEv
    libPocoFoundation.dll._ZN4Poco18ThreadLocalStorage7currentEv
    libPocoFoundation.dll._ZN4Poco18ThreadLocalStorageC1Ev
    libPocoFoundation.dll._ZN4Poco18ThreadLocalStorageC2Ev
    libPocoFoundation.dll._ZN4Poco18ThreadLocalStorageD1Ev
    libPocoFoundation.dll._ZN4Poco18ThreadLocalStorageD2Ev
    libPocoFoundation.dll._ZN4Poco18UnhandledExceptionC1ERKS0_
    libPocoFoundation.dll._ZN4Poco18UnhandledExceptionC1ERKSsRKNS_9ExceptionEi
    libPocoFoundation.dll._ZN4Poco18UnhandledExceptionC1ERKSsS2_i
    libPocoFoundation.dll._ZN4Poco18UnhandledExceptionC1ERKSsi
    libPocoFoundation.dll._ZN4Poco18UnhandledExceptionC1Ei
    libPocoFoundation.dll._ZN4Poco18UnhandledExceptionC2ERKS0_
    libPocoFoundation.dll._ZN4Poco18UnhandledExceptionC2ERKSsRKNS_9ExceptionEi
    libPocoFoundation.dll._ZN4Poco18UnhandledExceptionC2ERKSsS2_i
    libPocoFoundation.dll._ZN4Poco18UnhandledExceptionC2ERKSsi
    libPocoFoundation.dll._ZN4Poco18UnhandledExceptionC2Ei
    libPocoFoundation.dll._ZN4Poco18UnhandledExceptionD0Ev
    libPocoFoundation.dll._ZN4Poco18UnhandledExceptionD1Ev
    libPocoFoundation.dll._ZN4Poco18UnhandledExceptionD2Ev
    libPocoFoundation.dll._ZN4Poco18UnhandledExceptionaSERKS0_
    libPocoFoundation.dll._ZN4Poco18WriteFileExceptionC1ERKS0_
    libPocoFoundation.dll._ZN4Poco18WriteFileExceptionC1ERKSsRKNS_9ExceptionEi
    libPocoFoundation.dll._ZN4Poco18WriteFileExceptionC1ERKSsS2_i
    libPocoFoundation.dll._ZN4Poco18WriteFileExceptionC1ERKSsi
    libPocoFoundation.dll._ZN4Poco18WriteFileExceptionC1Ei
    libPocoFoundation.dll._ZN4Poco18WriteFileExceptionC2ERKS0_
    libPocoFoundation.dll._ZN4Poco18WriteFileExceptionC2ERKSsRKNS_9ExceptionEi
    libPocoFoundation.dll._ZN4Poco18WriteFileExceptionC2ERKSsS2_i
    libPocoFoundation.dll._ZN4Poco18WriteFileExceptionC2ERKSsi
    libPocoFoundation.dll._ZN4Poco18WriteFileExceptionC2Ei
    libPocoFoundation.dll._ZN4Poco18WriteFileExceptionD0Ev
    libPocoFoundation.dll._ZN4Poco18WriteFileExceptionD1Ev
    libPocoFoundation.dll._ZN4Poco18WriteFileExceptionD2Ev
    libPocoFoundation.dll._ZN4Poco18WriteFileExceptionaSERKS0_
    libPocoFoundation.dll._ZN4Poco19CountingInputStreamC1ERSi
    libPocoFoundation.dll._ZN4Poco19CountingInputStreamC2ERSi
    libPocoFoundation.dll._ZN4Poco19CountingInputStreamD0Ev
    libPocoFoundation.dll._ZN4Poco19CountingInputStreamD1Ev
    libPocoFoundation.dll._ZN4Poco19CountingInputStreamD2Ev
    libPocoFoundation.dll._ZN4Poco19CreateFileExceptionC1ERKS0_
    libPocoFoundation.dll._ZN4Poco19CreateFileExceptionC1ERKSsRKNS_9ExceptionEi
    libPocoFoundation.dll._ZN4Poco19CreateFileExceptionC1ERKSsS2_i
    libPocoFoundation.dll._ZN4Poco19CreateFileExceptionC1ERKSsi
    libPocoFoundation.dll._ZN4Poco19CreateFileExceptionC1Ei
    libPocoFoundation.dll._ZN4Poco19CreateFileExceptionC2ERKS0_
    libPocoFoundation.dll._ZN4Poco19CreateFileExceptionC2ERKSsRKNS_9ExceptionEi
    libPocoFoundation.dll._ZN4Poco19CreateFileExceptionC2ERKSsS2_i
    libPocoFoundation.dll._ZN4Poco19CreateFileExceptionC2ERKSsi
    libPocoFoundation.dll._ZN4Poco19CreateFileExceptionC2Ei
    libPocoFoundation.dll._ZN4Poco19CreateFileExceptionD0Ev
    libPocoFoundation.dll._ZN4Poco19CreateFileExceptionD1Ev
    libPocoFoundation.dll._ZN4Poco19CreateFileExceptionD2Ev
    libPocoFoundation.dll._ZN4Poco19CreateFileExceptionaSERKS0_
    libPocoFoundation.dll._ZN4Poco19DataFormatExceptionC1ERKS0_
    libPocoFoundation.dll._ZN4Poco19DataFormatExceptionC1ERKSsRKNS_9ExceptionEi
    libPocoFoundation.dll._ZN4Poco19DataFormatExceptionC1ERKSsS2_i
    libPocoFoundation.dll._ZN4Poco19DataFormatExceptionC1ERKSsi
    libPocoFoundation.dll._ZN4Poco19DataFormatExceptionC1Ei
    libPocoFoundation.dll._ZN4Poco19DataFormatExceptionC2ERKS0_
    libPocoFoundation.dll._ZN4Poco19DataFormatExceptionC2ERKSsRKNS_9ExceptionEi
    libPocoFoundation.dll._ZN4Poco19DataFormatExceptionC2ERKSsS2_i
    libPocoFoundation.dll._ZN4Poco19DataFormatExceptionC2ERKSsi
    libPocoFoundation.dll._ZN4Poco19DataFormatExceptionC2Ei
    libPocoFoundation.dll._ZN4Poco19DataFormatExceptionD0Ev
    libPocoFoundation.dll._ZN4Poco19DataFormatExceptionD1Ev
    libPocoFoundation.dll._ZN4Poco19DataFormatExceptionD2Ev
    libPocoFoundation.dll._ZN4Poco19DataFormatExceptionaSERKS0_
    libPocoFoundation.dll._ZN4Poco19FileExistsExceptionC1ERKS0_
    libPocoFoundation.dll._ZN4Poco19FileExistsExceptionC1ERKSsRKNS_9ExceptionEi
    libPocoFoundation.dll._ZN4Poco19FileExistsExceptionC1ERKSsS2_i
    libPocoFoundation.dll._ZN4Poco19FileExistsExceptionC1ERKSsi
    libPocoFoundation.dll._ZN4Poco19FileExistsExceptionC1Ei
    libPocoFoundation.dll._ZN4Poco19FileExistsExceptionC2ERKS0_
    libPocoFoundation.dll._ZN4Poco19FileExistsExceptionC2ERKSsRKNS_9ExceptionEi
    libPocoFoundation.dll._ZN4Poco19FileExistsExceptionC2ERKSsS2_i
    libPocoFoundation.dll._ZN4Poco19FileExistsExceptionC2ERKSsi
    libPocoFoundation.dll._ZN4Poco19FileExistsExceptionC2Ei
    libPocoFoundation.dll._ZN4Poco19FileExistsExceptionD0Ev
    libPocoFoundation.dll._ZN4Poco19FileExistsExceptionD1Ev
    libPocoFoundation.dll._ZN4Poco19FileExistsExceptionD2Ev
    libPocoFoundation.dll._ZN4Poco19FileExistsExceptionaSERKS0_
    libPocoFoundation.dll._ZN4Poco19HexBinaryDecoderBuf14readFromDeviceEv
    libPocoFoundation.dll._ZN4Poco19HexBinaryDecoderBuf7readOneEv
    libPocoFoundation.dll._ZN4Poco19HexBinaryDecoderBufC1ERSi
    libPocoFoundation.dll._ZN4Poco19HexBinaryDecoderBufC2ERSi
    libPocoFoundation.dll._ZN4Poco19HexBinaryDecoderBufD0Ev
    libPocoFoundation.dll._ZN4Poco19HexBinaryDecoderBufD1Ev
    libPocoFoundation.dll._ZN4Poco19HexBinaryDecoderBufD2Ev
    libPocoFoundation.dll._ZN4Poco19HexBinaryDecoderIOS5rdbufEv
    libPocoFoundation.dll._ZN4Poco19HexBinaryDecoderIOSC1ERSi
    libPocoFoundation.dll._ZN4Poco19HexBinaryDecoderIOSC2ERSi
    libPocoFoundation.dll._ZN4Poco19HexBinaryDecoderIOSD0Ev
    libPocoFoundation.dll._ZN4Poco19HexBinaryDecoderIOSD1Ev
    libPocoFoundation.dll._ZN4Poco19HexBinaryDecoderIOSD2Ev
    libPocoFoundation.dll._ZN4Poco19HexBinaryEncoderBuf12setUppercaseEb
    libPocoFoundation.dll._ZN4Poco19HexBinaryEncoderBuf13setLineLengthEi
    libPocoFoundation.dll._ZN4Poco19HexBinaryEncoderBuf13writeToDeviceEc
    libPocoFoundation.dll._ZN4Poco19HexBinaryEncoderBuf5closeEv
    libPocoFoundation.dll._ZN4Poco19HexBinaryEncoderBufC1ERSo
    libPocoFoundation.dll._ZN4Poco19HexBinaryEncoderBufC2ERSo
    libPocoFoundation.dll._ZN4Poco19HexBinaryEncoderBufD0Ev
    libPocoFoundation.dll._ZN4Poco19HexBinaryEncoderBufD1Ev
    libPocoFoundation.dll._ZN4Poco19HexBinaryEncoderBufD2Ev
    libPocoFoundation.dll._ZN4Poco19HexBinaryEncoderIOS5closeEv
    libPocoFoundation.dll._ZN4Poco19HexBinaryEncoderIOS5rdbufEv
    libPocoFoundation.dll._ZN4Poco19HexBinaryEncoderIOSC1ERSo
    libPocoFoundation.dll._ZN4Poco19HexBinaryEncoderIOSC2ERSo
    libPocoFoundation.dll._ZN4Poco19HexBinaryEncoderIOSD0Ev
    libPocoFoundation.dll._ZN4Poco19HexBinaryEncoderIOSD1Ev
    libPocoFoundation.dll._ZN4Poco19HexBinaryEncoderIOSD2Ev
    libPocoFoundation.dll._ZN4Poco19MessageNotificationD0Ev
    libPocoFoundation.dll._ZN4Poco19MessageNotificationD1Ev
    libPocoFoundation.dll._ZN4Poco19PathSyntaxExceptionC1ERKS0_
    libPocoFoundation.dll._ZN4Poco19PathSyntaxExceptionC1ERKSsRKNS_9ExceptionEi
    libPocoFoundation.dll._ZN4Poco19PathSyntaxExceptionC1ERKSsS2_i
    libPocoFoundation.dll._ZN4Poco19PathSyntaxExceptionC1ERKSsi
    libPocoFoundation.dll._ZN4Poco19PathSyntaxExceptionC1Ei
    libPocoFoundation.dll._ZN4Poco19PathSyntaxExceptionC2ERKS0_
    libPocoFoundation.dll._ZN4Poco19PathSyntaxExceptionC2ERKSsRKNS_9ExceptionEi
    libPocoFoundation.dll._ZN4Poco19PathSyntaxExceptionC2ERKSsS2_i
    libPocoFoundation.dll._ZN4Poco19PathSyntaxExceptionC2ERKSsi
    libPocoFoundation.dll._ZN4Poco19PathSyntaxExceptionC2Ei
    libPocoFoundation.dll._ZN4Poco19PathSyntaxExceptionD0Ev
    libPocoFoundation.dll._ZN4Poco19PathSyntaxExceptionD1Ev
    libPocoFoundation.dll._ZN4Poco19PathSyntaxExceptionD2Ev
    libPocoFoundation.dll._ZN4Poco19PathSyntaxExceptionaSERKS0_
    libPocoFoundation.dll._ZN4Poco19TextEncodingManagerC1Ev
    libPocoFoundation.dll._ZN4Poco19Windows1252Encoding6_namesE
    libPocoFoundation.dll._ZN4Poco19Windows1252Encoding8_charMapE
    libPocoFoundation.dll._ZN4Poco19Windows1252EncodingC1Ev
    libPocoFoundation.dll._ZN4Poco19Windows1252EncodingC2Ev
    libPocoFoundation.dll._ZN4Poco19Windows1252EncodingD0Ev
    libPocoFoundation.dll._ZN4Poco19Windows1252EncodingD1Ev
    libPocoFoundation.dll._ZN4Poco19Windows1252EncodingD2Ev
    libPocoFoundation.dll._ZN4Poco20AbstractInstantiatorINS_7ChannelEED0Ev
    libPocoFoundation.dll._ZN4Poco20AbstractInstantiatorINS_7ChannelEED1Ev
    libPocoFoundation.dll._ZN4Poco20AbstractInstantiatorINS_9FormatterEED0Ev
    libPocoFoundation.dll._ZN4Poco20AbstractInstantiatorINS_9FormatterEED1Ev
    libPocoFoundation.dll._ZN4Poco20ApplicationExceptionC1ERKS0_
    libPocoFoundation.dll._ZN4Poco20ApplicationExceptionC1ERKSsRKNS_9ExceptionEi
    libPocoFoundation.dll._ZN4Poco20ApplicationExceptionC1ERKSsS2_i
    libPocoFoundation.dll._ZN4Poco20ApplicationExceptionC1ERKSsi
    libPocoFoundation.dll._ZN4Poco20ApplicationExceptionC1Ei
    libPocoFoundation.dll._ZN4Poco20ApplicationExceptionC2ERKS0_
    libPocoFoundation.dll._ZN4Poco20ApplicationExceptionC2ERKSsRKNS_9ExceptionEi
    libPocoFoundation.dll._ZN4Poco20ApplicationExceptionC2ERKSsS2_i
    libPocoFoundation.dll._ZN4Poco20ApplicationExceptionC2ERKSsi
    libPocoFoundation.dll._ZN4Poco20ApplicationExceptionC2Ei
    libPocoFoundation.dll._ZN4Poco20ApplicationExceptionD0Ev
    libPocoFoundation.dll._ZN4Poco20ApplicationExceptionD1Ev
    libPocoFoundation.dll._ZN4Poco20ApplicationExceptionD2Ev
    libPocoFoundation.dll._ZN4Poco20ApplicationExceptionaSERKS0_
    libPocoFoundation.dll._ZN4Poco20BasicMemoryStreamBufIcSt11char_traitsIcEE4syncEv
    libPocoFoundation.dll._ZN4Poco20BasicMemoryStreamBufIcSt11char_traitsIcEE8overflowEi
    libPocoFoundation.dll._ZN4Poco20BasicMemoryStreamBufIcSt11char_traitsIcEE9underflowEv
    libPocoFoundation.dll._ZN4Poco20BasicMemoryStreamBufIcSt11char_traitsIcEED0Ev
    libPocoFoundation.dll._ZN4Poco20BasicMemoryStreamBufIcSt11char_traitsIcEED1Ev
    libPocoFoundation.dll._ZN4Poco20CountingOutputStreamC1ERSo
    libPocoFoundation.dll._ZN4Poco20CountingOutputStreamC1Ev
    libPocoFoundation.dll._ZN4Poco20CountingOutputStreamC2ERSo
    libPocoFoundation.dll._ZN4Poco20CountingOutputStreamC2Ev
    libPocoFoundation.dll._ZN4Poco20CountingOutputStreamD0Ev
    libPocoFoundation.dll._ZN4Poco20CountingOutputStreamD1Ev
    libPocoFoundation.dll._ZN4Poco20CountingOutputStreamD2Ev
    libPocoFoundation.dll._ZN4Poco20DeflatingInputStreamC1ERSiNS_18DeflatingStreamBuf10StreamTypeEi
    libPocoFoundation.dll._ZN4Poco20DeflatingInputStreamC1ERSiii
    libPocoFoundation.dll._ZN4Poco20DeflatingInputStreamC2ERSiNS_18DeflatingStreamBuf10StreamTypeEi
    libPocoFoundation.dll._ZN4Poco20DeflatingInputStreamC2ERSiii
    libPocoFoundation.dll._ZN4Poco20DeflatingInputStreamD0Ev
    libPocoFoundation.dll._ZN4Poco20DeflatingInputStreamD1Ev
    libPocoFoundation.dll._ZN4Poco20DeflatingInputStreamD2Ev
    libPocoFoundation.dll._ZN4Poco20DynamicAnyHolderImplISsED0Ev
    libPocoFoundation.dll._ZN4Poco20DynamicAnyHolderImplISsED1Ev
    libPocoFoundation.dll._ZN4Poco20DynamicAnyHolderImplIdED0Ev
    libPocoFoundation.dll._ZN4Poco20DynamicAnyHolderImplIdED1Ev
    libPocoFoundation.dll._ZN4Poco20DynamicAnyHolderImplIiED0Ev
    libPocoFoundation.dll._ZN4Poco20DynamicAnyHolderImplIiED1Ev
    libPocoFoundation.dll._ZN4Poco20DynamicAnyHolderImplIxED0Ev
    libPocoFoundation.dll._ZN4Poco20DynamicAnyHolderImplIxED1Ev
    libPocoFoundation.dll._ZN4Poco20DynamicAnyHolderImplIyED0Ev
    libPocoFoundation.dll._ZN4Poco20DynamicAnyHolderImplIyED1Ev
    libPocoFoundation.dll._ZN4Poco20InflatingInputStream5resetEv
    libPocoFoundation.dll._ZN4Poco20InflatingInputStreamC1ERSiNS_18InflatingStreamBuf10StreamTypeE
    libPocoFoundation.dll._ZN4Poco20InflatingInputStreamC1ERSii
    libPocoFoundation.dll._ZN4Poco20InflatingInputStreamC2ERSiNS_18InflatingStreamBuf10StreamTypeE
    libPocoFoundation.dll._ZN4Poco20InflatingInputStreamC2ERSii
    libPocoFoundation.dll._ZN4Poco20InflatingInputStreamD0Ev
    libPocoFoundation.dll._ZN4Poco20InflatingInputStreamD1Ev
    libPocoFoundation.dll._ZN4Poco20InflatingInputStreamD2Ev
    libPocoFoundation.dll._ZN4Poco20InputStreamConverterC1ERSiRKNS_12TextEncodingES4_i
    libPocoFoundation.dll._ZN4Poco20InputStreamConverterC2ERSiRKNS_12TextEncodingES4_i
    libPocoFoundation.dll._ZN4Poco20InputStreamConverterD0Ev
    libPocoFoundation.dll._ZN4Poco20InputStreamConverterD1Ev
    libPocoFoundation.dll._ZN4Poco20InputStreamConverterD2Ev
    libPocoFoundation.dll._ZN4Poco20LibraryLoadExceptionC1ERKS0_
    libPocoFoundation.dll._ZN4Poco20LibraryLoadExceptionC1ERKSsRKNS_9ExceptionEi
    libPocoFoundation.dll._ZN4Poco20LibraryLoadExceptionC1ERKSsS2_i
    libPocoFoundation.dll._ZN4Poco20LibraryLoadExceptionC1ERKSsi
    libPocoFoundation.dll._ZN4Poco20LibraryLoadExceptionC1Ei
    libPocoFoundation.dll._ZN4Poco20LibraryLoadExceptionC2ERKS0_
    libPocoFoundation.dll._ZN4Poco20LibraryLoadExceptionC2ERKSsRKNS_9ExceptionEi
    libPocoFoundation.dll._ZN4Poco20LibraryLoadExceptionC2ERKSsS2_i
    libPocoFoundation.dll._ZN4Poco20LibraryLoadExceptionC2ERKSsi
    libPocoFoundation.dll._ZN4Poco20LibraryLoadExceptionC2Ei
    libPocoFoundation.dll._ZN4Poco20LibraryLoadExceptionD0Ev
    libPocoFoundation.dll._ZN4Poco20LibraryLoadExceptionD1Ev
    libPocoFoundation.dll._ZN4Poco20LibraryLoadExceptionD2Ev
    libPocoFoundation.dll._ZN4Poco20LibraryLoadExceptionaSERKS0_
    libPocoFoundation.dll._ZN4Poco20NullPointerExceptionC1ERKS0_
    libPocoFoundation.dll._ZN4Poco20NullPointerExceptionC1ERKSsRKNS_9ExceptionEi
    libPocoFoundation.dll._ZN4Poco20NullPointerExceptionC1ERKSsS2_i
    libPocoFoundation.dll._ZN4Poco20NullPointerExceptionC1ERKSsi
    libPocoFoundation.dll._ZN4Poco20NullPointerExceptionC1Ei
    libPocoFoundation.dll._ZN4Poco20NullPointerExceptionC2ERKS0_
    libPocoFoundation.dll._ZN4Poco20NullPointerExceptionC2ERKSsRKNS_9ExceptionEi
    libPocoFoundation.dll._ZN4Poco20NullPointerExceptionC2ERKSsS2_i
    libPocoFoundation.dll._ZN4Poco20NullPointerExceptionC2ERKSsi
    libPocoFoundation.dll._ZN4Poco20NullPointerExceptionC2Ei
    libPocoFoundation.dll._ZN4Poco20NullPointerExceptionD0Ev
    libPocoFoundation.dll._ZN4Poco20NullPointerExceptionD1Ev
    libPocoFoundation.dll._ZN4Poco20NullPointerExceptionD2Ev
    libPocoFoundation.dll._ZN4Poco20NullPointerExceptionaSERKS0_
    libPocoFoundation.dll._ZN4Poco20OutOfMemoryExceptionC1ERKS0_
    libPocoFoundation.dll._ZN4Poco20OutOfMemoryExceptionC1ERKSsRKNS_9ExceptionEi
    libPocoFoundation.dll._ZN4Poco20OutOfMemoryExceptionC1ERKSsS2_i
    libPocoFoundation.dll._ZN4Poco20OutOfMemoryExceptionC1ERKSsi
    libPocoFoundation.dll._ZN4Poco20OutOfMemoryExceptionC1Ei
    libPocoFoundation.dll._ZN4Poco20OutOfMemoryExceptionC2ERKS0_
    libPocoFoundation.dll._ZN4Poco20OutOfMemoryExceptionC2ERKSsRKNS_9ExceptionEi
    libPocoFoundation.dll._ZN4Poco20OutOfMemoryExceptionC2ERKSsS2_i
    libPocoFoundation.dll._ZN4Poco20OutOfMemoryExceptionC2ERKSsi
    libPocoFoundation.dll._ZN4Poco20OutOfMemoryExceptionC2Ei
    libPocoFoundation.dll._ZN4Poco20OutOfMemoryExceptionD0Ev
    libPocoFoundation.dll._ZN4Poco20OutOfMemoryExceptionD1Ev
    libPocoFoundation.dll._ZN4Poco20OutOfMemoryExceptionD2Ev
    libPocoFoundation.dll._ZN4Poco20OutOfMemoryExceptionaSERKS0_
    libPocoFoundation.dll._ZN4Poco20PurgeByCountStrategy5purgeERKSs
    libPocoFoundation.dll._ZN4Poco20PurgeByCountStrategyC1Ei
    libPocoFoundation.dll._ZN4Poco20PurgeByCountStrategyC2Ei
    libPocoFoundation.dll._ZN4Poco20PurgeByCountStrategyD0Ev
    libPocoFoundation.dll._ZN4Poco20PurgeByCountStrategyD1Ev
    libPocoFoundation.dll._ZN4Poco20PurgeByCountStrategyD2Ev
    libPocoFoundation.dll._ZN4Poco20RotateAtTimeStrategyINS_13LocalDateTimeEE10mustRotateEPNS_7LogFileE
    libPocoFoundation.dll._ZN4Poco20RotateAtTimeStrategyINS_13LocalDateTimeEED0Ev
    libPocoFoundation.dll._ZN4Poco20RotateAtTimeStrategyINS_13LocalDateTimeEED1Ev
    libPocoFoundation.dll._ZN4Poco20RotateAtTimeStrategyINS_8DateTimeEE10mustRotateEPNS_7LogFileE
    libPocoFoundation.dll._ZN4Poco20RotateAtTimeStrategyINS_8DateTimeEED0Ev
    libPocoFoundation.dll._ZN4Poco20RotateAtTimeStrategyINS_8DateTimeEED1Ev
    libPocoFoundation.dll._ZN4Poco20RotateBySizeStrategy10mustRotateEPNS_7LogFileE
    libPocoFoundation.dll._ZN4Poco20RotateBySizeStrategyC1Ey
    libPocoFoundation.dll._ZN4Poco20RotateBySizeStrategyC2Ey
    libPocoFoundation.dll._ZN4Poco20RotateBySizeStrategyD0Ev
    libPocoFoundation.dll._ZN4Poco20RotateBySizeStrategyD1Ev
    libPocoFoundation.dll._ZN4Poco20RotateBySizeStrategyD2Ev
    libPocoFoundation.dll._ZN4Poco20ScopedLockWithUnlockINS_5MutexEE6unlockEv
    libPocoFoundation.dll._ZN4Poco21AbstractTimerCallbackC1ERKS0_
    libPocoFoundation.dll._ZN4Poco21AbstractTimerCallbackC1Ev
    libPocoFoundation.dll._ZN4Poco21AbstractTimerCallbackC2ERKS0_
    libPocoFoundation.dll._ZN4Poco21AbstractTimerCallbackC2Ev
    libPocoFoundation.dll._ZN4Poco21AbstractTimerCallbackD0Ev
    libPocoFoundation.dll._ZN4Poco21AbstractTimerCallbackD1Ev
    libPocoFoundation.dll._ZN4Poco21AbstractTimerCallbackD2Ev
    libPocoFoundation.dll._ZN4Poco21AbstractTimerCallbackaSERKS0_
    libPocoFoundation.dll._ZN4Poco21DeflatingOutputStream4syncEv
    libPocoFoundation.dll._ZN4Poco21DeflatingOutputStream5closeEv
    libPocoFoundation.dll._ZN4Poco21DeflatingOutputStreamC1ERSoNS_18DeflatingStreamBuf10StreamTypeEi
    libPocoFoundation.dll._ZN4Poco21DeflatingOutputStreamC1ERSoii
    libPocoFoundation.dll._ZN4Poco21DeflatingOutputStreamC2ERSoNS_18DeflatingStreamBuf10StreamTypeEi
    libPocoFoundation.dll._ZN4Poco21DeflatingOutputStreamC2ERSoii
    libPocoFoundation.dll._ZN4Poco21DeflatingOutputStreamD0Ev
    libPocoFoundation.dll._ZN4Poco21DeflatingOutputStreamD1Ev
    libPocoFoundation.dll._ZN4Poco21DeflatingOutputStreamD2Ev
    libPocoFoundation.dll._ZN4Poco21DirectoryIteratorImpl4nextEv
    libPocoFoundation.dll._ZN4Poco21DirectoryIteratorImplC1ERKSs
    libPocoFoundation.dll._ZN4Poco21DirectoryIteratorImplC2ERKSs
    libPocoFoundation.dll._ZN4Poco21DirectoryIteratorImplD1Ev
    libPocoFoundation.dll._ZN4Poco21DirectoryIteratorImplD2Ev
    libPocoFoundation.dll._ZN4Poco21FileNotFoundExceptionC1ERKS0_
    libPocoFoundation.dll._ZN4Poco21FileNotFoundExceptionC1ERKSsRKNS_9ExceptionEi
    libPocoFoundation.dll._ZN4Poco21FileNotFoundExceptionC1ERKSsS2_i
    libPocoFoundation.dll._ZN4Poco21FileNotFoundExceptionC1ERKSsi
    libPocoFoundation.dll._ZN4Poco21FileNotFoundExceptionC1Ei
    libPocoFoundation.dll._ZN4Poco21FileNotFoundExceptionC2ERKS0_
    libPocoFoundation.dll._ZN4Poco21FileNotFoundExceptionC2ERKSsRKNS_9ExceptionEi
    libPocoFoundation.dll._ZN4Poco21FileNotFoundExceptionC2ERKSsS2_i
    libPocoFoundation.dll._ZN4Poco21FileNotFoundExceptionC2ERKSsi
    libPocoFoundation.dll._ZN4Poco21FileNotFoundExceptionC2Ei
    libPocoFoundation.dll._ZN4Poco21FileNotFoundExceptionD0Ev
    libPocoFoundation.dll._ZN4Poco21FileNotFoundExceptionD1Ev
    libPocoFoundation.dll._ZN4Poco21FileNotFoundExceptionD2Ev
    libPocoFoundation.dll._ZN4Poco21FileNotFoundExceptionaSERKS0_
    libPocoFoundation.dll._ZN4Poco21FileReadOnlyExceptionC1ERKS0_
    libPocoFoundation.dll._ZN4Poco21FileReadOnlyExceptionC1ERKSsRKNS_9ExceptionEi
    libPocoFoundation.dll._ZN4Poco21FileReadOnlyExceptionC1ERKSsS2_i
    libPocoFoundation.dll._ZN4Poco21FileReadOnlyExceptionC1ERKSsi
    libPocoFoundation.dll._ZN4Poco21FileReadOnlyExceptionC1Ei
    libPocoFoundation.dll._ZN4Poco21FileReadOnlyExceptionC2ERKS0_
    libPocoFoundation.dll._ZN4Poco21FileReadOnlyExceptionC2ERKSsRKNS_9ExceptionEi
    libPocoFoundation.dll._ZN4Poco21FileReadOnlyExceptionC2ERKSsS2_i
    libPocoFoundation.dll._ZN4Poco21FileReadOnlyExceptionC2ERKSsi
    libPocoFoundation.dll._ZN4Poco21FileReadOnlyExceptionC2Ei
    libPocoFoundation.dll._ZN4Poco21FileReadOnlyExceptionD0Ev
    libPocoFoundation.dll._ZN4Poco21FileReadOnlyExceptionD1Ev
    libPocoFoundation.dll._ZN4Poco21FileReadOnlyExceptionD2Ev
    libPocoFoundation.dll._ZN4Poco21FileReadOnlyExceptionaSERKS0_
    libPocoFoundation.dll._ZN4Poco21IllegalStateExceptionC1ERKS0_
    libPocoFoundation.dll._ZN4Poco21IllegalStateExceptionC1ERKSsRKNS_9ExceptionEi
    libPocoFoundation.dll._ZN4Poco21IllegalStateExceptionC1ERKSsS2_i
    libPocoFoundation.dll._ZN4Poco21IllegalStateExceptionC1ERKSsi
    libPocoFoundation.dll._ZN4Poco21IllegalStateExceptionC1Ei
    libPocoFoundation.dll._ZN4Poco21IllegalStateExceptionC2ERKS0_
    libPocoFoundation.dll._ZN4Poco21IllegalStateExceptionC2ERKSsRKNS_9ExceptionEi
    libPocoFoundation.dll._ZN4Poco21IllegalStateExceptionC2ERKSsS2_i
    libPocoFoundation.dll._ZN4Poco21IllegalStateExceptionC2ERKSsi
    libPocoFoundation.dll._ZN4Poco21IllegalStateExceptionC2Ei
    libPocoFoundation.dll._ZN4Poco21IllegalStateExceptionD0Ev
    libPocoFoundation.dll._ZN4Poco21IllegalStateExceptionD1Ev
    libPocoFoundation.dll._ZN4Poco21IllegalStateExceptionD2Ev
    libPocoFoundation.dll._ZN4Poco21IllegalStateExceptionaSERKS0_
    libPocoFoundation.dll._ZN4Poco21InflatingOutputStream5closeEv
    libPocoFoundation.dll._ZN4Poco21InflatingOutputStreamC1ERSoNS_18InflatingStreamBuf10StreamTypeE
    libPocoFoundation.dll._ZN4Poco21InflatingOutputStreamC1ERSoi
    libPocoFoundation.dll._ZN4Poco21InflatingOutputStreamC2ERSoNS_18InflatingStreamBuf10StreamTypeE
    libPocoFoundation.dll._ZN4Poco21InflatingOutputStreamC2ERSoi
    libPocoFoundation.dll._ZN4Poco21InflatingOutputStreamD0Ev
    libPocoFoundation.dll._ZN4Poco21InflatingOutputStreamD1Ev
    libPocoFoundation.dll._ZN4Poco21InflatingOutputStreamD2Ev
    libPocoFoundation.dll._ZN4Poco21NoPermissionExceptionC1ERKS0_
    libPocoFoundation.dll._ZN4Poco21NoPermissionExceptionC1ERKSsRKNS_9ExceptionEi
    libPocoFoundation.dll._ZN4Poco21NoPermissionExceptionC1ERKSsS2_i
    libPocoFoundation.dll._ZN4Poco21NoPermissionExceptionC1ERKSsi
    libPocoFoundation.dll._ZN4Poco21NoPermissionExceptionC1Ei
    libPocoFoundation.dll._ZN4Poco21NoPermissionExceptionC2ERKS0_
    libPocoFoundation.dll._ZN4Poco21NoPermissionExceptionC2ERKSsRKNS_9ExceptionEi
    libPocoFoundation.dll._ZN4Poco21NoPermissionExceptionC2ERKSsS2_i
    libPocoFoundation.dll._ZN4Poco21NoPermissionExceptionC2ERKSsi
    libPocoFoundation.dll._ZN4Poco21NoPermissionExceptionC2Ei
    libPocoFoundation.dll._ZN4Poco21NoPermissionExceptionD0Ev
    libPocoFoundation.dll._ZN4Poco21NoPermissionExceptionD1Ev
    libPocoFoundation.dll._ZN4Poco21NoPermissionExceptionD2Ev
    libPocoFoundation.dll._ZN4Poco21NoPermissionExceptionaSERKS0_
    libPocoFoundation.dll._ZN4Poco21OutputStreamConverterC1ERSoRKNS_12TextEncodingES4_i
    libPocoFoundation.dll._ZN4Poco21OutputStreamConverterC2ERSoRKNS_12TextEncodingES4_i
    libPocoFoundation.dll._ZN4Poco21OutputStreamConverterD0Ev
    libPocoFoundation.dll._ZN4Poco21OutputStreamConverterD1Ev
    libPocoFoundation.dll._ZN4Poco21OutputStreamConverterD2Ev
    libPocoFoundation.dll._ZN4Poco21PathNotFoundExceptionC1ERKS0_
    libPocoFoundation.dll._ZN4Poco21PathNotFoundExceptionC1ERKSsRKNS_9ExceptionEi
    libPocoFoundation.dll._ZN4Poco21PathNotFoundExceptionC1ERKSsS2_i
    libPocoFoundation.dll._ZN4Poco21PathNotFoundExceptionC1ERKSsi
    libPocoFoundation.dll._ZN4Poco21PathNotFoundExceptionC1Ei
    libPocoFoundation.dll._ZN4Poco21PathNotFoundExceptionC2ERKS0_
    libPocoFoundation.dll._ZN4Poco21PathNotFoundExceptionC2ERKSsRKNS_9ExceptionEi
    libPocoFoundation.dll._ZN4Poco21PathNotFoundExceptionC2ERKSsS2_i
    libPocoFoundation.dll._ZN4Poco21PathNotFoundExceptionC2ERKSsi
    libPocoFoundation.dll._ZN4Poco21PathNotFoundExceptionC2Ei
    libPocoFoundation.dll._ZN4Poco21PathNotFoundExceptionD0Ev
    libPocoFoundation.dll._ZN4Poco21PathNotFoundExceptionD1Ev
    libPocoFoundation.dll._ZN4Poco21PathNotFoundExceptionD2Ev
    libPocoFoundation.dll._ZN4Poco21PathNotFoundExceptionaSERKS0_
    libPocoFoundation.dll._ZN4Poco21PoolOverflowExceptionC1ERKS0_
    libPocoFoundation.dll._ZN4Poco21PoolOverflowExceptionC1ERKSsRKNS_9ExceptionEi
    libPocoFoundation.dll._ZN4Poco21PoolOverflowExceptionC1ERKSsS2_i
    libPocoFoundation.dll._ZN4Poco21PoolOverflowExceptionC1ERKSsi
    libPocoFoundation.dll._ZN4Poco21PoolOverflowExceptionC1Ei
    libPocoFoundation.dll._ZN4Poco21PoolOverflowExceptionC2ERKS0_
    libPocoFoundation.dll._ZN4Poco21PoolOverflowExceptionC2ERKSsRKNS_9ExceptionEi
    libPocoFoundation.dll._ZN4Poco21PoolOverflowExceptionC2ERKSsS2_i
    libPocoFoundation.dll._ZN4Poco21PoolOverflowExceptionC2ERKSsi
    libPocoFoundation.dll._ZN4Poco21PoolOverflowExceptionC2Ei
    libPocoFoundation.dll._ZN4Poco21PoolOverflowExceptionD0Ev
    libPocoFoundation.dll._ZN4Poco21PoolOverflowExceptionD1Ev
    libPocoFoundation.dll._ZN4Poco21PoolOverflowExceptionD2Ev
    libPocoFoundation.dll._ZN4Poco21PoolOverflowExceptionaSERKS0_
    libPocoFoundation.dll._ZN4Poco21WindowsConsoleChannel3logERKNS_7MessageE
    libPocoFoundation.dll._ZN4Poco21WindowsConsoleChannelC1Ev
    libPocoFoundation.dll._ZN4Poco21WindowsConsoleChannelC2Ev
    libPocoFoundation.dll._ZN4Poco21WindowsConsoleChannelD0Ev
    libPocoFoundation.dll._ZN4Poco21WindowsConsoleChannelD1Ev
    libPocoFoundation.dll._ZN4Poco21WindowsConsoleChannelD2Ev
    libPocoFoundation.dll._ZN4Poco22BasicBufferedStreamBufIcSt11char_traitsIcENS_15BufferAllocatorIcEEE13writeToDeviceEPKci
    libPocoFoundation.dll._ZN4Poco22BasicBufferedStreamBufIcSt11char_traitsIcENS_15BufferAllocatorIcEEE14readFromDeviceEPci
    libPocoFoundation.dll._ZN4Poco22BasicBufferedStreamBufIcSt11char_traitsIcENS_15BufferAllocatorIcEEE4syncEv
    libPocoFoundation.dll._ZN4Poco22BasicBufferedStreamBufIcSt11char_traitsIcENS_15BufferAllocatorIcEEE8overflowEi
    libPocoFoundation.dll._ZN4Poco22BasicBufferedStreamBufIcSt11char_traitsIcENS_15BufferAllocatorIcEEE9underflowEv
    libPocoFoundation.dll._ZN4Poco22BasicBufferedStreamBufIcSt11char_traitsIcENS_15BufferAllocatorIcEEED0Ev
    libPocoFoundation.dll._ZN4Poco22BasicBufferedStreamBufIcSt11char_traitsIcENS_15BufferAllocatorIcEEED1Ev
    libPocoFoundation.dll._ZN4Poco22BasicBufferedStreamBufIcSt11char_traitsIcENS_15BufferAllocatorIcEEED2Ev
    libPocoFoundation.dll._ZN4Poco22InvalidAccessExceptionC1ERKS0_
    libPocoFoundation.dll._ZN4Poco22InvalidAccessExceptionC1ERKSsRKNS_9ExceptionEi
    libPocoFoundation.dll._ZN4Poco22InvalidAccessExceptionC1ERKSsS2_i
    libPocoFoundation.dll._ZN4Poco22InvalidAccessExceptionC1ERKSsi
    libPocoFoundation.dll._ZN4Poco22InvalidAccessExceptionC1Ei
    libPocoFoundation.dll._ZN4Poco22InvalidAccessExceptionC2ERKS0_
    libPocoFoundation.dll._ZN4Poco22InvalidAccessExceptionC2ERKSsRKNS_9ExceptionEi
    libPocoFoundation.dll._ZN4Poco22InvalidAccessExceptionC2ERKSsS2_i
    libPocoFoundation.dll._ZN4Poco22InvalidAccessExceptionC2ERKSsi
    libPocoFoundation.dll._ZN4Poco22InvalidAccessExceptionC2Ei
    libPocoFoundation.dll._ZN4Poco22InvalidAccessExceptionD0Ev
    libPocoFoundation.dll._ZN4Poco22InvalidAccessExceptionD1Ev
    libPocoFoundation.dll._ZN4Poco22InvalidAccessExceptionD2Ev
    libPocoFoundation.dll._ZN4Poco22InvalidAccessExceptionaSERKS0_
    libPocoFoundation.dll._ZN4Poco22LineEndingConverterIOS10setNewLineERKSs
    libPocoFoundation.dll._ZN4Poco22LineEndingConverterIOS5rdbufEv
    libPocoFoundation.dll._ZN4Poco22LineEndingConverterIOSC1ERSi
    libPocoFoundation.dll._ZN4Poco22LineEndingConverterIOSC1ERSo
    libPocoFoundation.dll._ZN4Poco22LineEndingConverterIOSC2ERSi
    libPocoFoundation.dll._ZN4Poco22LineEndingConverterIOSC2ERSo
    libPocoFoundation.dll._ZN4Poco22LineEndingConverterIOSD0Ev
    libPocoFoundation.dll._ZN4Poco22LineEndingConverterIOSD1Ev
    libPocoFoundation.dll._ZN4Poco22LineEndingConverterIOSD2Ev
    libPocoFoundation.dll._ZN4Poco22TaskFailedNotificationC1EPNS_4TaskERKNS_9ExceptionE
    libPocoFoundation.dll._ZN4Poco22TaskFailedNotificationC2EPNS_4TaskERKNS_9ExceptionE
    libPocoFoundation.dll._ZN4Poco22TaskFailedNotificationD0Ev
    libPocoFoundation.dll._ZN4Poco22TaskFailedNotificationD1Ev
    libPocoFoundation.dll._ZN4Poco22TaskFailedNotificationD2Ev
    libPocoFoundation.dll._ZN4Poco22TimedNotificationQueue10dequeueOneERSt17_Rb_tree_iteratorISt4pairIKNS_9TimestampENS_7AutoPtrINS_12NotificationEEEEE
    libPocoFoundation.dll._ZN4Poco22TimedNotificationQueue19dequeueNotificationEv
    libPocoFoundation.dll._ZN4Poco22TimedNotificationQueue19enqueueNotificationENS_7AutoPtrINS_12NotificationEEENS_9TimestampE
    libPocoFoundation.dll._ZN4Poco22TimedNotificationQueue23waitDequeueNotificationEl
    libPocoFoundation.dll._ZN4Poco22TimedNotificationQueue23waitDequeueNotificationEv
    libPocoFoundation.dll._ZN4Poco22TimedNotificationQueue4waitEx
    libPocoFoundation.dll._ZN4Poco22TimedNotificationQueue5clearEv
    libPocoFoundation.dll._ZN4Poco22TimedNotificationQueueC1Ev
    libPocoFoundation.dll._ZN4Poco22TimedNotificationQueueC2Ev
    libPocoFoundation.dll._ZN4Poco22TimedNotificationQueueD1Ev
    libPocoFoundation.dll._ZN4Poco22TimedNotificationQueueD2Ev
    libPocoFoundation.dll._ZN4Poco23ArchiveByNumberStrategy7archiveEPNS_7LogFileE
    libPocoFoundation.dll._ZN4Poco23ArchiveByNumberStrategyC1Ev
    libPocoFoundation.dll._ZN4Poco23ArchiveByNumberStrategyC2Ev
    libPocoFoundation.dll._ZN4Poco23ArchiveByNumberStrategyD0Ev
    libPocoFoundation.dll._ZN4Poco23ArchiveByNumberStrategyD1Ev
    libPocoFoundation.dll._ZN4Poco23ArchiveByNumberStrategyD2Ev
    libPocoFoundation.dll._ZN4Poco23NestedDiagnosticContext3popEv
    libPocoFoundation.dll._ZN4Poco23NestedDiagnosticContext4pushERKSs
    libPocoFoundation.dll._ZN4Poco23NestedDiagnosticContext4pushERKSsiPKc
    libPocoFoundation.dll._ZN4Poco23NestedDiagnosticContext5clearEv
    libPocoFoundation.dll._ZN4Poco23NestedDiagnosticContext7currentEv
    libPocoFoundation.dll._ZN4Poco23NestedDiagnosticContextC1ERKS0_
    libPocoFoundation.dll._ZN4Poco23NestedDiagnosticContextC1Ev
    libPocoFoundation.dll._ZN4Poco23NestedDiagnosticContextC2ERKS0_
    libPocoFoundation.dll._ZN4Poco23NestedDiagnosticContextC2Ev
    libPocoFoundation.dll._ZN4Poco23NestedDiagnosticContextD1Ev
    libPocoFoundation.dll._ZN4Poco23NestedDiagnosticContextD2Ev
    libPocoFoundation.dll._ZN4Poco23NestedDiagnosticContextaSERKS0_
    libPocoFoundation.dll._ZN4Poco23NotImplementedExceptionC1ERKS0_
    libPocoFoundation.dll._ZN4Poco23NotImplementedExceptionC1ERKSsRKNS_9ExceptionEi
    libPocoFoundation.dll._ZN4Poco23NotImplementedExceptionC1ERKSsS2_i
    libPocoFoundation.dll._ZN4Poco23NotImplementedExceptionC1ERKSsi
    libPocoFoundation.dll._ZN4Poco23NotImplementedExceptionC1Ei
    libPocoFoundation.dll._ZN4Poco23NotImplementedExceptionC2ERKS0_
    libPocoFoundation.dll._ZN4Poco23NotImplementedExceptionC2ERKSsRKNS_9ExceptionEi
    libPocoFoundation.dll._ZN4Poco23NotImplementedExceptionC2ERKSsS2_i
    libPocoFoundation.dll._ZN4Poco23NotImplementedExceptionC2ERKSsi
    libPocoFoundation.dll._ZN4Poco23NotImplementedExceptionC2Ei
    libPocoFoundation.dll._ZN4Poco23NotImplementedExceptionD0Ev
    libPocoFoundation.dll._ZN4Poco23NotImplementedExceptionD1Ev
    libPocoFoundation.dll._ZN4Poco23NotImplementedExceptionD2Ev
    libPocoFoundation.dll._ZN4Poco23NotImplementedExceptionaSERKS0_
    libPocoFoundation.dll._ZN4Poco23TaskStartedNotificationC1EPNS_4TaskE
    libPocoFoundation.dll._ZN4Poco23TaskStartedNotificationC2EPNS_4TaskE
    libPocoFoundation.dll._ZN4Poco23TaskStartedNotificationD0Ev
    libPocoFoundation.dll._ZN4Poco23TaskStartedNotificationD1Ev
    libPocoFoundation.dll._ZN4Poco23TaskStartedNotificationD2Ev
    libPocoFoundation.dll._ZN4Poco24BasicUnbufferedStreamBufIcSt11char_traitsIcEE13writeToDeviceEc
    libPocoFoundation.dll._ZN4Poco24BasicUnbufferedStreamBufIcSt11char_traitsIcEE14readFromDeviceEv
    libPocoFoundation.dll._ZN4Poco24BasicUnbufferedStreamBufIcSt11char_traitsIcEE5uflowEv
    libPocoFoundation.dll._ZN4Poco24BasicUnbufferedStreamBufIcSt11char_traitsIcEE6xsgetnEPci
    libPocoFoundation.dll._ZN4Poco24BasicUnbufferedStreamBufIcSt11char_traitsIcEE8overflowEi
    libPocoFoundation.dll._ZN4Poco24BasicUnbufferedStreamBufIcSt11char_traitsIcEE9pbackfailEi
    libPocoFoundation.dll._ZN4Poco24BasicUnbufferedStreamBufIcSt11char_traitsIcEE9underflowEv
    libPocoFoundation.dll._ZN4Poco24BasicUnbufferedStreamBufIcSt11char_traitsIcEED0Ev
    libPocoFoundation.dll._ZN4Poco24BasicUnbufferedStreamBufIcSt11char_traitsIcEED1Ev
    libPocoFoundation.dll._ZN4Poco24BasicUnbufferedStreamBufIcSt11char_traitsIcEED2Ev
    libPocoFoundation.dll._ZN4Poco24InputLineEndingConverterC1ERSi
    libPocoFoundation.dll._ZN4Poco24InputLineEndingConverterC1ERSiRKSs
    libPocoFoundation.dll._ZN4Poco24InputLineEndingConverterC2ERSi
    libPocoFoundation.dll._ZN4Poco24InputLineEndingConverterC2ERSiRKSs
    libPocoFoundation.dll._ZN4Poco24InputLineEndingConverterD0Ev
    libPocoFoundation.dll._ZN4Poco24InputLineEndingConverterD1Ev
    libPocoFoundation.dll._ZN4Poco24InputLineEndingConverterD2Ev
    libPocoFoundation.dll._ZN4Poco24InvalidArgumentExceptionC1ERKS0_
    libPocoFoundation.dll._ZN4Poco24InvalidArgumentExceptionC1ERKSsRKNS_9ExceptionEi
    libPocoFoundation.dll._ZN4Poco24InvalidArgumentExceptionC1ERKSsS2_i
    libPocoFoundation.dll._ZN4Poco24InvalidArgumentExceptionC1ERKSsi
    libPocoFoundation.dll._ZN4Poco24InvalidArgumentExceptionC1Ei
    libPocoFoundation.dll._ZN4Poco24InvalidArgumentExceptionC2ERKS0_
    libPocoFoundation.dll._ZN4Poco24InvalidArgumentExceptionC2ERKSsRKNS_9ExceptionEi
    libPocoFoundation.dll._ZN4Poco24InvalidArgumentExceptionC2ERKSsS2_i
    libPocoFoundation.dll._ZN4Poco24InvalidArgumentExceptionC2ERKSsi
    libPocoFoundation.dll._ZN4Poco24InvalidArgumentExceptionC2Ei
    libPocoFoundation.dll._ZN4Poco24InvalidArgumentExceptionD0Ev
    libPocoFoundation.dll._ZN4Poco24InvalidArgumentExceptionD1Ev
    libPocoFoundation.dll._ZN4Poco24InvalidArgumentExceptionD2Ev
    libPocoFoundation.dll._ZN4Poco24InvalidArgumentExceptionaSERKS0_
    libPocoFoundation.dll._ZN4Poco24RotateByIntervalStrategy10mustRotateEPNS_7LogFileE
    libPocoFoundation.dll._ZN4Poco24RotateByIntervalStrategy11ROTATE_TEXTE
    libPocoFoundation.dll._ZN4Poco24RotateByIntervalStrategyC1ERKNS_8TimespanE
    libPocoFoundation.dll._ZN4Poco24RotateByIntervalStrategyC2ERKNS_8TimespanE
    libPocoFoundation.dll._ZN4Poco24RotateByIntervalStrategyD0Ev
    libPocoFoundation.dll._ZN4Poco24RotateByIntervalStrategyD1Ev
    libPocoFoundation.dll._ZN4Poco24RotateByIntervalStrategyD2Ev
    libPocoFoundation.dll._ZN4Poco24TaskFinishedNotificationC1EPNS_4TaskE
    libPocoFoundation.dll._ZN4Poco24TaskFinishedNotificationC2EPNS_4TaskE
    libPocoFoundation.dll._ZN4Poco24TaskFinishedNotificationD0Ev
    libPocoFoundation.dll._ZN4Poco24TaskFinishedNotificationD1Ev
    libPocoFoundation.dll._ZN4Poco24TaskFinishedNotificationD2Ev
    libPocoFoundation.dll._ZN4Poco24TaskProgressNotificationC1EPNS_4TaskEf
    libPocoFoundation.dll._ZN4Poco24TaskProgressNotificationC2EPNS_4TaskEf
    libPocoFoundation.dll._ZN4Poco24TaskProgressNotificationD0Ev
    libPocoFoundation.dll._ZN4Poco24TaskProgressNotificationD1Ev
    libPocoFoundation.dll._ZN4Poco24TaskProgressNotificationD2Ev
    libPocoFoundation.dll._ZN4Poco25FileAccessDeniedExceptionC1ERKS0_
    libPocoFoundation.dll._ZN4Poco25FileAccessDeniedExceptionC1ERKSsRKNS_9ExceptionEi
    libPocoFoundation.dll._ZN4Poco25FileAccessDeniedExceptionC1ERKSsS2_i
    libPocoFoundation.dll._ZN4Poco25FileAccessDeniedExceptionC1ERKSsi
    libPocoFoundation.dll._ZN4Poco25FileAccessDeniedExceptionC1Ei
    libPocoFoundation.dll._ZN4Poco25FileAccessDeniedExceptionC2ERKS0_
    libPocoFoundation.dll._ZN4Poco25FileAccessDeniedExceptionC2ERKSsRKNS_9ExceptionEi
    libPocoFoundation.dll._ZN4Poco25FileAccessDeniedExceptionC2ERKSsS2_i
    libPocoFoundation.dll._ZN4Poco25FileAccessDeniedExceptionC2ERKSsi
    libPocoFoundation.dll._ZN4Poco25FileAccessDeniedExceptionC2Ei
    libPocoFoundation.dll._ZN4Poco25FileAccessDeniedExceptionD0Ev
    libPocoFoundation.dll._ZN4Poco25FileAccessDeniedExceptionD1Ev
    libPocoFoundation.dll._ZN4Poco25FileAccessDeniedExceptionD2Ev
    libPocoFoundation.dll._ZN4Poco25FileAccessDeniedExceptionaSERKS0_
    libPocoFoundation.dll._ZN4Poco25OutputLineEndingConverterC1ERSo
    libPocoFoundation.dll._ZN4Poco25OutputLineEndingConverterC1ERSoRKSs
    libPocoFoundation.dll._ZN4Poco25OutputLineEndingConverterC2ERSo
    libPocoFoundation.dll._ZN4Poco25OutputLineEndingConverterC2ERSoRKSs
    libPocoFoundation.dll._ZN4Poco25OutputLineEndingConverterD0Ev
    libPocoFoundation.dll._ZN4Poco25OutputLineEndingConverterD1Ev
    libPocoFoundation.dll._ZN4Poco25OutputLineEndingConverterD2Ev
    libPocoFoundation.dll._ZN4Poco25PriorityNotificationQueue10dequeueOneEv
    libPocoFoundation.dll._ZN4Poco25PriorityNotificationQueue12defaultQueueEv
    libPocoFoundation.dll._ZN4Poco25PriorityNotificationQueue19dequeueNotificationEv
    libPocoFoundation.dll._ZN4Poco25PriorityNotificationQueue19enqueueNotificationENS_7AutoPtrINS_12NotificationEEEi
    libPocoFoundation.dll._ZN4Poco25PriorityNotificationQueue23waitDequeueNotificationEl
    libPocoFoundation.dll._ZN4Poco25PriorityNotificationQueue23waitDequeueNotificationEv
    libPocoFoundation.dll._ZN4Poco25PriorityNotificationQueue5clearEv
    libPocoFoundation.dll._ZN4Poco25PriorityNotificationQueue8dispatchERNS_18NotificationCenterE
    libPocoFoundation.dll._ZN4Poco25PriorityNotificationQueue9wakeUpAllEv
    libPocoFoundation.dll._ZN4Poco25PriorityNotificationQueueC1Ev
    libPocoFoundation.dll._ZN4Poco25PriorityNotificationQueueC2Ev
    libPocoFoundation.dll._ZN4Poco25PriorityNotificationQueueD1Ev
    libPocoFoundation.dll._ZN4Poco25PriorityNotificationQueueD2Ev
    libPocoFoundation.dll._ZN4Poco25TaskCancelledNotificationC1EPNS_4TaskE
    libPocoFoundation.dll._ZN4Poco25TaskCancelledNotificationC2EPNS_4TaskE
    libPocoFoundation.dll._ZN4Poco25TaskCancelledNotificationD0Ev
    libPocoFoundation.dll._ZN4Poco25TaskCancelledNotificationD1Ev
    libPocoFoundation.dll._ZN4Poco25TaskCancelledNotificationD2Ev
    libPocoFoundation.dll._ZN4Poco25UnknownURISchemeExceptionC1ERKS0_
    libPocoFoundation.dll._ZN4Poco25UnknownURISchemeExceptionC1ERKSsRKNS_9ExceptionEi
    libPocoFoundation.dll._ZN4Poco25UnknownURISchemeExceptionC1ERKSsS2_i
    libPocoFoundation.dll._ZN4Poco25UnknownURISchemeExceptionC1ERKSsi
    libPocoFoundation.dll._ZN4Poco25UnknownURISchemeExceptionC1Ei
    libPocoFoundation.dll._ZN4Poco25UnknownURISchemeExceptionC2ERKS0_
    libPocoFoundation.dll._ZN4Poco25UnknownURISchemeExceptionC2ERKSsRKNS_9ExceptionEi
    libPocoFoundation.dll._ZN4Poco25UnknownURISchemeExceptionC2ERKSsS2_i
    libPocoFoundation.dll._ZN4Poco25UnknownURISchemeExceptionC2ERKSsi
    libPocoFoundation.dll._ZN4Poco25UnknownURISchemeExceptionC2Ei
    libPocoFoundation.dll._ZN4Poco25UnknownURISchemeExceptionD0Ev
    libPocoFoundation.dll._ZN4Poco25UnknownURISchemeExceptionD1Ev
    libPocoFoundation.dll._ZN4Poco25UnknownURISchemeExceptionD2Ev
    libPocoFoundation.dll._ZN4Poco25UnknownURISchemeExceptionaSERKS0_
    libPocoFoundation.dll._ZN4Poco26ArchiveByTimestampStrategyINS_13LocalDateTimeEE7archiveEPNS_7LogFileE
    libPocoFoundation.dll._ZN4Poco26ArchiveByTimestampStrategyINS_13LocalDateTimeEED0Ev
    libPocoFoundation.dll._ZN4Poco26ArchiveByTimestampStrategyINS_13LocalDateTimeEED1Ev
    libPocoFoundation.dll._ZN4Poco26ArchiveByTimestampStrategyINS_8DateTimeEE7archiveEPNS_7LogFileE
    libPocoFoundation.dll._ZN4Poco26ArchiveByTimestampStrategyINS_8DateTimeEED0Ev
    libPocoFoundation.dll._ZN4Poco26ArchiveByTimestampStrategyINS_8DateTimeEED1Ev
    libPocoFoundation.dll._ZN4Poco26CircularReferenceExceptionC1ERKS0_
    libPocoFoundation.dll._ZN4Poco26CircularReferenceExceptionC1ERKSsRKNS_9ExceptionEi
    libPocoFoundation.dll._ZN4Poco26CircularReferenceExceptionC1ERKSsS2_i
    libPocoFoundation.dll._ZN4Poco26CircularReferenceExceptionC1ERKSsi
    libPocoFoundation.dll._ZN4Poco26CircularReferenceExceptionC1Ei
    libPocoFoundation.dll._ZN4Poco26CircularReferenceExceptionC2ERKS0_
    libPocoFoundation.dll._ZN4Poco26CircularReferenceExceptionC2ERKSsRKNS_9ExceptionEi
    libPocoFoundation.dll._ZN4Poco26CircularReferenceExceptionC2ERKSsS2_i
    libPocoFoundation.dll._ZN4Poco26CircularReferenceExceptionC2ERKSsi
    libPocoFoundation.dll._ZN4Poco26CircularReferenceExceptionC2Ei
    libPocoFoundation.dll._ZN4Poco26CircularReferenceExceptionD0Ev
    libPocoFoundation.dll._ZN4Poco26CircularReferenceExceptionD1Ev
    libPocoFoundation.dll._ZN4Poco26CircularReferenceExceptionD2Ev
    libPocoFoundation.dll._ZN4Poco26CircularReferenceExceptionaSERKS0_
    libPocoFoundation.dll._ZN4Poco26NoThreadAvailableExceptionC1ERKS0_
    libPocoFoundation.dll._ZN4Poco26NoThreadAvailableExceptionC1ERKSsRKNS_9ExceptionEi
    libPocoFoundation.dll._ZN4Poco26NoThreadAvailableExceptionC1ERKSsS2_i
    libPocoFoundation.dll._ZN4Poco26NoThreadAvailableExceptionC1ERKSsi
    libPocoFoundation.dll._ZN4Poco26NoThreadAvailableExceptionC1Ei
    libPocoFoundation.dll._ZN4Poco26NoThreadAvailableExceptionC2ERKS0_
    libPocoFoundation.dll._ZN4Poco26NoThreadAvailableExceptionC2ERKSsRKNS_9ExceptionEi
    libPocoFoundation.dll._ZN4Poco26NoThreadAvailableExceptionC2ERKSsS2_i
    libPocoFoundation.dll._ZN4Poco26NoThreadAvailableExceptionC2ERKSsi
    libPocoFoundation.dll._ZN4Poco26NoThreadAvailableExceptionC2Ei
    libPocoFoundation.dll._ZN4Poco26NoThreadAvailableExceptionD0Ev
    libPocoFoundation.dll._ZN4Poco26NoThreadAvailableExceptionD1Ev
    libPocoFoundation.dll._ZN4Poco26NoThreadAvailableExceptionD2Ev
    libPocoFoundation.dll._ZN4Poco26NoThreadAvailableExceptionaSERKS0_
    libPocoFoundation.dll._ZN4Poco26RegularExpressionExceptionC1ERKS0_
    libPocoFoundation.dll._ZN4Poco26RegularExpressionExceptionC1ERKSsRKNS_9ExceptionEi
    libPocoFoundation.dll._ZN4Poco26RegularExpressionExceptionC1ERKSsS2_i
    libPocoFoundation.dll._ZN4Poco26RegularExpressionExceptionC1ERKSsi
    libPocoFoundation.dll._ZN4Poco26RegularExpressionExceptionC1Ei
    libPocoFoundation.dll._ZN4Poco26RegularExpressionExceptionC2ERKS0_
    libPocoFoundation.dll._ZN4Poco26RegularExpressionExceptionC2ERKSsRKNS_9ExceptionEi
    libPocoFoundation.dll._ZN4Poco26RegularExpressionExceptionC2ERKSsS2_i
    libPocoFoundation.dll._ZN4Poco26RegularExpressionExceptionC2ERKSsi
    libPocoFoundation.dll._ZN4Poco26RegularExpressionExceptionC2Ei
    libPocoFoundation.dll._ZN4Poco26RegularExpressionExceptionD0Ev
    libPocoFoundation.dll._ZN4Poco26RegularExpressionExceptionD1Ev
    libPocoFoundation.dll._ZN4Poco26RegularExpressionExceptionD2Ev
    libPocoFoundation.dll._ZN4Poco26RegularExpressionExceptionaSERKS0_
    libPocoFoundation.dll._ZN4Poco27AssertionViolationExceptionC1ERKS0_
    libPocoFoundation.dll._ZN4Poco27AssertionViolationExceptionC1ERKSsRKNS_9ExceptionEi
    libPocoFoundation.dll._ZN4Poco27AssertionViolationExceptionC1ERKSsS2_i
    libPocoFoundation.dll._ZN4Poco27AssertionViolationExceptionC1ERKSsi
    libPocoFoundation.dll._ZN4Poco27AssertionViolationExceptionC1Ei
    libPocoFoundation.dll._ZN4Poco27AssertionViolationExceptionC2ERKS0_
    libPocoFoundation.dll._ZN4Poco27AssertionViolationExceptionC2ERKSsRKNS_9ExceptionEi
    libPocoFoundation.dll._ZN4Poco27AssertionViolationExceptionC2ERKSsS2_i
    libPocoFoundation.dll._ZN4Poco27AssertionViolationExceptionC2ERKSsi
    libPocoFoundation.dll._ZN4Poco27AssertionViolationExceptionC2Ei
    libPocoFoundation.dll._ZN4Poco27AssertionViolationExceptionD0Ev
    libPocoFoundation.dll._ZN4Poco27AssertionViolationExceptionD1Ev
    libPocoFoundation.dll._ZN4Poco27AssertionViolationExceptionD2Ev
    libPocoFoundation.dll._ZN4Poco27AssertionViolationExceptionaSERKS0_
    libPocoFoundation.dll._ZN4Poco28LineEndingConverterStreamBuf10setNewLineERKSs
    libPocoFoundation.dll._ZN4Poco28LineEndingConverterStreamBuf13writeToDeviceEc
    libPocoFoundation.dll._ZN4Poco28LineEndingConverterStreamBuf14readFromDeviceEv
    libPocoFoundation.dll._ZN4Poco28LineEndingConverterStreamBufC1ERSi
    libPocoFoundation.dll._ZN4Poco28LineEndingConverterStreamBufC1ERSo
    libPocoFoundation.dll._ZN4Poco28LineEndingConverterStreamBufC2ERSi
    libPocoFoundation.dll._ZN4Poco28LineEndingConverterStreamBufC2ERSo
    libPocoFoundation.dll._ZN4Poco28LineEndingConverterStreamBufD0Ev
    libPocoFoundation.dll._ZN4Poco28LineEndingConverterStreamBufD1Ev
    libPocoFoundation.dll._ZN4Poco28LineEndingConverterStreamBufD2Ev
    libPocoFoundation.dll._ZN4Poco29LibraryAlreadyLoadedExceptionC1ERKS0_
    libPocoFoundation.dll._ZN4Poco29LibraryAlreadyLoadedExceptionC1ERKSsRKNS_9ExceptionEi
    libPocoFoundation.dll._ZN4Poco29LibraryAlreadyLoadedExceptionC1ERKSsS2_i
    libPocoFoundation.dll._ZN4Poco29LibraryAlreadyLoadedExceptionC1ERKSsi
    libPocoFoundation.dll._ZN4Poco29LibraryAlreadyLoadedExceptionC1Ei
    libPocoFoundation.dll._ZN4Poco29LibraryAlreadyLoadedExceptionC2ERKS0_
    libPocoFoundation.dll._ZN4Poco29LibraryAlreadyLoadedExceptionC2ERKSsRKNS_9ExceptionEi
    libPocoFoundation.dll._ZN4Poco29LibraryAlreadyLoadedExceptionC2ERKSsS2_i
    libPocoFoundation.dll._ZN4Poco29LibraryAlreadyLoadedExceptionC2ERKSsi
    libPocoFoundation.dll._ZN4Poco29LibraryAlreadyLoadedExceptionC2Ei
    libPocoFoundation.dll._ZN4Poco29LibraryAlreadyLoadedExceptionD0Ev
    libPocoFoundation.dll._ZN4Poco29LibraryAlreadyLoadedExceptionD1Ev
    libPocoFoundation.dll._ZN4Poco29LibraryAlreadyLoadedExceptionD2Ev
    libPocoFoundation.dll._ZN4Poco29LibraryAlreadyLoadedExceptionaSERKS0_
    libPocoFoundation.dll._ZN4Poco29PropertyNotSupportedExceptionC1ERKS0_
    libPocoFoundation.dll._ZN4Poco29PropertyNotSupportedExceptionC1ERKSsRKNS_9ExceptionEi
    libPocoFoundation.dll._ZN4Poco29PropertyNotSupportedExceptionC1ERKSsS2_i
    libPocoFoundation.dll._ZN4Poco29PropertyNotSupportedExceptionC1ERKSsi
    libPocoFoundation.dll._ZN4Poco29PropertyNotSupportedExceptionC1Ei
    libPocoFoundation.dll._ZN4Poco29PropertyNotSupportedExceptionC2ERKS0_
    libPocoFoundation.dll._ZN4Poco29PropertyNotSupportedExceptionC2ERKSsRKNS_9ExceptionEi
    libPocoFoundation.dll._ZN4Poco29PropertyNotSupportedExceptionC2ERKSsS2_i
    libPocoFoundation.dll._ZN4Poco29PropertyNotSupportedExceptionC2ERKSsi
    libPocoFoundation.dll._ZN4Poco29PropertyNotSupportedExceptionC2Ei
    libPocoFoundation.dll._ZN4Poco29PropertyNotSupportedExceptionD0Ev
    libPocoFoundation.dll._ZN4Poco29PropertyNotSupportedExceptionD1Ev
    libPocoFoundation.dll._ZN4Poco29PropertyNotSupportedExceptionD2Ev
    libPocoFoundation.dll._ZN4Poco29PropertyNotSupportedExceptionaSERKS0_
    libPocoFoundation.dll._ZN4Poco35BasicBufferedBidirectionalStreamBufIcSt11char_traitsIcENS_15BufferAllocatorIcEEE13writeToDeviceEPKci
    libPocoFoundation.dll._ZN4Poco35BasicBufferedBidirectionalStreamBufIcSt11char_traitsIcENS_15BufferAllocatorIcEEE14readFromDeviceEPci
    libPocoFoundation.dll._ZN4Poco35BasicBufferedBidirectionalStreamBufIcSt11char_traitsIcENS_15BufferAllocatorIcEEE4syncEv
    libPocoFoundation.dll._ZN4Poco35BasicBufferedBidirectionalStreamBufIcSt11char_traitsIcENS_15BufferAllocatorIcEEE8overflowEi
    libPocoFoundation.dll._ZN4Poco35BasicBufferedBidirectionalStreamBufIcSt11char_traitsIcENS_15BufferAllocatorIcEEE9underflowEv
    libPocoFoundation.dll._ZN4Poco35BasicBufferedBidirectionalStreamBufIcSt11char_traitsIcENS_15BufferAllocatorIcEEED0Ev
    libPocoFoundation.dll._ZN4Poco35BasicBufferedBidirectionalStreamBufIcSt11char_traitsIcENS_15BufferAllocatorIcEEED1Ev
    libPocoFoundation.dll._ZN4Poco35BasicBufferedBidirectionalStreamBufIcSt11char_traitsIcENS_15BufferAllocatorIcEEED2Ev
    libPocoFoundation.dll._ZN4Poco3URI10parseQueryERN9__gnu_cxx17__normal_iteratorIPKcSsEERKS5_
    libPocoFoundation.dll._ZN4Poco3URI10setPathEtcERKSs
    libPocoFoundation.dll._ZN4Poco3URI11setFragmentERKSs
    libPocoFoundation.dll._ZN4Poco3URI11setRawQueryERKSs
    libPocoFoundation.dll._ZN4Poco3URI11setUserInfoERKSs
    libPocoFoundation.dll._ZN4Poco3URI12parsePathEtcERN9__gnu_cxx17__normal_iteratorIPKcSsEERKS5_
    libPocoFoundation.dll._ZN4Poco3URI12setAuthorityERKSs
    libPocoFoundation.dll._ZN4Poco3URI13RESERVED_PATHE
    libPocoFoundation.dll._ZN4Poco3URI13parseFragmentERN9__gnu_cxx17__normal_iteratorIPKcSsEERKS5_
    libPocoFoundation.dll._ZN4Poco3URI14RESERVED_QUERYE
    libPocoFoundation.dll._ZN4Poco3URI14parseAuthorityERN9__gnu_cxx17__normal_iteratorIPKcSsEERKS5_
    libPocoFoundation.dll._ZN4Poco3URI15getPathSegmentsERKSsRSt6vectorISsSaISsEE
    libPocoFoundation.dll._ZN4Poco3URI15getPathSegmentsERSt6vectorISsSaISsEE
    libPocoFoundation.dll._ZN4Poco3URI16parseHostAndPortERN9__gnu_cxx17__normal_iteratorIPKcSsEERKS5_
    libPocoFoundation.dll._ZN4Poco3URI17RESERVED_FRAGMENTE
    libPocoFoundation.dll._ZN4Poco3URI17removeDotSegmentsEb
    libPocoFoundation.dll._ZN4Poco3URI4swapERS0_
    libPocoFoundation.dll._ZN4Poco3URI5clearEv
    libPocoFoundation.dll._ZN4Poco3URI5parseERKSs
    libPocoFoundation.dll._ZN4Poco3URI6decodeERKSsRSs
    libPocoFoundation.dll._ZN4Poco3URI6encodeERKSsS2_RSs
    libPocoFoundation.dll._ZN4Poco3URI7ILLEGALE
    libPocoFoundation.dll._ZN4Poco3URI7resolveERKS0_
    libPocoFoundation.dll._ZN4Poco3URI7resolveERKSs
    libPocoFoundation.dll._ZN4Poco3URI7setHostERKSs
    libPocoFoundation.dll._ZN4Poco3URI7setPathERKSs
    libPocoFoundation.dll._ZN4Poco3URI7setPortEt
    libPocoFoundation.dll._ZN4Poco3URI8setQueryERKSs
    libPocoFoundation.dll._ZN4Poco3URI9buildPathERKSt6vectorISsSaISsEEbb
    libPocoFoundation.dll._ZN4Poco3URI9mergePathERKSs
    libPocoFoundation.dll._ZN4Poco3URI9normalizeEv
    libPocoFoundation.dll._ZN4Poco3URI9parsePathERN9__gnu_cxx17__normal_iteratorIPKcSsEERKS5_
    libPocoFoundation.dll._ZN4Poco3URI9setSchemeERKSs
    libPocoFoundation.dll._ZN4Poco3URIC1EPKc
    libPocoFoundation.dll._ZN4Poco3URIC1ERKS0_
    libPocoFoundation.dll._ZN4Poco3URIC1ERKS0_RKSs
    libPocoFoundation.dll._ZN4Poco3URIC1ERKSs
    libPocoFoundation.dll._ZN4Poco3URIC1ERKSsS2_
    libPocoFoundation.dll._ZN4Poco3URIC1ERKSsS2_S2_
    libPocoFoundation.dll._ZN4Poco3URIC1ERKSsS2_S2_S2_
    libPocoFoundation.dll._ZN4Poco3URIC1ERKSsS2_S2_S2_S2_
    libPocoFoundation.dll._ZN4Poco3URIC1Ev
    libPocoFoundation.dll._ZN4Poco3URIC2EPKc
    libPocoFoundation.dll._ZN4Poco3URIC2ERKS0_
    libPocoFoundation.dll._ZN4Poco3URIC2ERKS0_RKSs
    libPocoFoundation.dll._ZN4Poco3URIC2ERKSs
    libPocoFoundation.dll._ZN4Poco3URIC2ERKSsS2_
    libPocoFoundation.dll._ZN4Poco3URIC2ERKSsS2_S2_
    libPocoFoundation.dll._ZN4Poco3URIC2ERKSsS2_S2_S2_
    libPocoFoundation.dll._ZN4Poco3URIC2ERKSsS2_S2_S2_S2_
    libPocoFoundation.dll._ZN4Poco3URIC2Ev
    libPocoFoundation.dll._ZN4Poco3URID1Ev
    libPocoFoundation.dll._ZN4Poco3URID2Ev
    libPocoFoundation.dll._ZN4Poco3URIaSEPKc
    libPocoFoundation.dll._ZN4Poco3URIaSERKS0_
    libPocoFoundation.dll._ZN4Poco3URIaSERKSs
    libPocoFoundation.dll._ZN4Poco4File10createFileEv
    libPocoFoundation.dll._ZN4Poco4File11setReadOnlyEb
    libPocoFoundation.dll._ZN4Poco4File12setWriteableEb
    libPocoFoundation.dll._ZN4Poco4File13setExecutableEb
    libPocoFoundation.dll._ZN4Poco4File15createDirectoryEv
    libPocoFoundation.dll._ZN4Poco4File15handleLastErrorERKSs
    libPocoFoundation.dll._ZN4Poco4File15setLastModifiedERKNS_9TimestampE
    libPocoFoundation.dll._ZN4Poco4File17createDirectoriesEv
    libPocoFoundation.dll._ZN4Poco4File4swapERS0_
    libPocoFoundation.dll._ZN4Poco4File6moveToERKSs
    libPocoFoundation.dll._ZN4Poco4File6removeEb
    libPocoFoundation.dll._ZN4Poco4File7setSizeEy
    libPocoFoundation.dll._ZN4Poco4File8renameToERKSs
    libPocoFoundation.dll._ZN4Poco4FileC1EPKc
    libPocoFoundation.dll._ZN4Poco4FileC1ERKNS_4PathE
    libPocoFoundation.dll._ZN4Poco4FileC1ERKS0_
    libPocoFoundation.dll._ZN4Poco4FileC1ERKSs
    libPocoFoundation.dll._ZN4Poco4FileC1Ev
    libPocoFoundation.dll._ZN4Poco4FileC2EPKc
    libPocoFoundation.dll._ZN4Poco4FileC2ERKNS_4PathE
    libPocoFoundation.dll._ZN4Poco4FileC2ERKS0_
    libPocoFoundation.dll._ZN4Poco4FileC2ERKSs
    libPocoFoundation.dll._ZN4Poco4FileC2Ev
    libPocoFoundation.dll._ZN4Poco4FileD0Ev
    libPocoFoundation.dll._ZN4Poco4FileD1Ev
    libPocoFoundation.dll._ZN4Poco4FileD2Ev
    libPocoFoundation.dll._ZN4Poco4FileaSEPKc
    libPocoFoundation.dll._ZN4Poco4FileaSERKNS_4PathE
    libPocoFoundation.dll._ZN4Poco4FileaSERKS0_
    libPocoFoundation.dll._ZN4Poco4FileaSERKSs
    libPocoFoundation.dll._ZN4Poco4Glob11isDirectoryERKNS_4PathEb
    libPocoFoundation.dll._ZN4Poco4Glob18matchAfterAsteriskENS_12TextIteratorERKS1_S1_S3_
    libPocoFoundation.dll._ZN4Poco4Glob4globEPKcRSt3setISsSt4lessISsESaISsEEi
    libPocoFoundation.dll._ZN4Poco4Glob4globERKNS_4PathERSt3setISsSt4lessISsESaISsEEi
    libPocoFoundation.dll._ZN4Poco4Glob4globERKSsRSt3setISsSt4lessISsESaISsEEi
    libPocoFoundation.dll._ZN4Poco4Glob5matchERKSs
    libPocoFoundation.dll._ZN4Poco4Glob5matchERNS_12TextIteratorERKS1_S2_S4_
    libPocoFoundation.dll._ZN4Poco4Glob7collectERKNS_4PathES3_S3_RKSsRSt3setISsSt4lessISsESaISsEEi
    libPocoFoundation.dll._ZN4Poco4Glob8matchSetERNS_12TextIteratorERKS1_i
    libPocoFoundation.dll._ZN4Poco4GlobC1ERKSsi
    libPocoFoundation.dll._ZN4Poco4GlobC2ERKSsi
    libPocoFoundation.dll._ZN4Poco4GlobD1Ev
    libPocoFoundation.dll._ZN4Poco4GlobD2Ev
    libPocoFoundation.dll._ZN4Poco4Path10makeParentEv
    libPocoFoundation.dll._ZN4Poco4Path10parseGuessERKSs
    libPocoFoundation.dll._ZN4Poco4Path11setBaseNameERKSs
    libPocoFoundation.dll._ZN4Poco4Path11setFileNameERKSs
    libPocoFoundation.dll._ZN4Poco4Path12makeAbsoluteERKS0_
    libPocoFoundation.dll._ZN4Poco4Path12makeAbsoluteEv
    libPocoFoundation.dll._ZN4Poco4Path12parseWindowsERKSs
    libPocoFoundation.dll._ZN4Poco4Path12popDirectoryEv
    libPocoFoundation.dll._ZN4Poco4Path12setExtensionERKSs
    libPocoFoundation.dll._ZN4Poco4Path13makeDirectoryEv
    libPocoFoundation.dll._ZN4Poco4Path13pushDirectoryERKSs
    libPocoFoundation.dll._ZN4Poco4Path14parseDirectoryERKSs
    libPocoFoundation.dll._ZN4Poco4Path14parseDirectoryERKSsNS0_5StyleE
    libPocoFoundation.dll._ZN4Poco4Path17popFrontDirectoryEv
    libPocoFoundation.dll._ZN4Poco4Path4findEN9__gnu_cxx17__normal_iteratorIPKSsSt6vectorISsSaISsEEEES8_RS3_RS0_
    libPocoFoundation.dll._ZN4Poco4Path4findERKSsS2_RS0_
    libPocoFoundation.dll._ZN4Poco4Path4homeEv
    libPocoFoundation.dll._ZN4Poco4Path4nullEv
    libPocoFoundation.dll._ZN4Poco4Path4swapERS0_
    libPocoFoundation.dll._ZN4Poco4Path4tempEv
    libPocoFoundation.dll._ZN4Poco4Path5clearEv
    libPocoFoundation.dll._ZN4Poco4Path6appendERKS0_
    libPocoFoundation.dll._ZN4Poco4Path6assignEPKc
    libPocoFoundation.dll._ZN4Poco4Path6assignERKS0_
    libPocoFoundation.dll._ZN4Poco4Path6assignERKSs
    libPocoFoundation.dll._ZN4Poco4Path6assignERKSsNS0_5StyleE
    libPocoFoundation.dll._ZN4Poco4Path6expandERKSs
    libPocoFoundation.dll._ZN4Poco4Path7currentEv
    libPocoFoundation.dll._ZN4Poco4Path7resolveERKS0_
    libPocoFoundation.dll._ZN4Poco4Path7setNodeERKSs
    libPocoFoundation.dll._ZN4Poco4Path8makeFileEv
    libPocoFoundation.dll._ZN4Poco4Path8parseVMSERKSs
    libPocoFoundation.dll._ZN4Poco4Path8tryParseERKSs
    libPocoFoundation.dll._ZN4Poco4Path8tryParseERKSsNS0_5StyleE
    libPocoFoundation.dll._ZN4Poco4Path9listRootsERSt6vectorISsSaISsEE
    libPocoFoundation.dll._ZN4Poco4Path9parseUnixERKSs
    libPocoFoundation.dll._ZN4Poco4Path9setDeviceERKSs
    libPocoFoundation.dll._ZN4Poco4Path9transcodeERKSs
    libPocoFoundation.dll._ZN4Poco4PathC1EPKc
    libPocoFoundation.dll._ZN4Poco4PathC1EPKcNS0_5StyleE
    libPocoFoundation.dll._ZN4Poco4PathC1ERKS0_
    libPocoFoundation.dll._ZN4Poco4PathC1ERKS0_PKc
    libPocoFoundation.dll._ZN4Poco4PathC1ERKS0_RKSs
    libPocoFoundation.dll._ZN4Poco4PathC1ERKS0_S2_
    libPocoFoundation.dll._ZN4Poco4PathC1ERKSs
    libPocoFoundation.dll._ZN4Poco4PathC1ERKSsNS0_5StyleE
    libPocoFoundation.dll._ZN4Poco4PathC1Eb
    libPocoFoundation.dll._ZN4Poco4PathC1Ev
    libPocoFoundation.dll._ZN4Poco4PathC2EPKc
    libPocoFoundation.dll._ZN4Poco4PathC2EPKcNS0_5StyleE
    libPocoFoundation.dll._ZN4Poco4PathC2ERKS0_
    libPocoFoundation.dll._ZN4Poco4PathC2ERKS0_PKc
    libPocoFoundation.dll._ZN4Poco4PathC2ERKS0_RKSs
    libPocoFoundation.dll._ZN4Poco4PathC2ERKS0_S2_
    libPocoFoundation.dll._ZN4Poco4PathC2ERKSs
    libPocoFoundation.dll._ZN4Poco4PathC2ERKSsNS0_5StyleE
    libPocoFoundation.dll._ZN4Poco4PathC2Eb
    libPocoFoundation.dll._ZN4Poco4PathC2Ev
    libPocoFoundation.dll._ZN4Poco4PathD1Ev
    libPocoFoundation.dll._ZN4Poco4PathD2Ev
    libPocoFoundation.dll._ZN4Poco4PathaSEPKc
    libPocoFoundation.dll._ZN4Poco4PathaSERKS0_
    libPocoFoundation.dll._ZN4Poco4PathaSERKSs
    libPocoFoundation.dll._ZN4Poco4Pipe5closeENS0_9CloseModeE
    libPocoFoundation.dll._ZN4Poco4PipeC1ERKS0_
    libPocoFoundation.dll._ZN4Poco4PipeC1Ev
    libPocoFoundation.dll._ZN4Poco4PipeC2ERKS0_
    libPocoFoundation.dll._ZN4Poco4PipeC2Ev
    libPocoFoundation.dll._ZN4Poco4PipeD1Ev
    libPocoFoundation.dll._ZN4Poco4PipeD2Ev
    libPocoFoundation.dll._ZN4Poco4PipeaSERKS0_
    libPocoFoundation.dll._ZN4Poco4Task11setProgressEf
    libPocoFoundation.dll._ZN4Poco4Task16postNotificationEPNS_12NotificationE
    libPocoFoundation.dll._ZN4Poco4Task3runEv
    libPocoFoundation.dll._ZN4Poco4Task5resetEv
    libPocoFoundation.dll._ZN4Poco4Task5sleepEl
    libPocoFoundation.dll._ZN4Poco4Task6cancelEv
    libPocoFoundation.dll._ZN4Poco4Task8setOwnerEPNS_11TaskManagerE
    libPocoFoundation.dll._ZN4Poco4Task8setStateENS0_9TaskStateE
    libPocoFoundation.dll._ZN4Poco4TaskC1ERKSs
    libPocoFoundation.dll._ZN4Poco4TaskC2ERKSs
    libPocoFoundation.dll._ZN4Poco4TaskD0Ev
    libPocoFoundation.dll._ZN4Poco4TaskD1Ev
    libPocoFoundation.dll._ZN4Poco4TaskD2Ev
    libPocoFoundation.dll._ZN4Poco4UTF814toLowerInPlaceERSs
    libPocoFoundation.dll._ZN4Poco4UTF814toUpperInPlaceERSs
    libPocoFoundation.dll._ZN4Poco4UTF87toLowerERKSs
    libPocoFoundation.dll._ZN4Poco4UTF87toUpperERKSs
    libPocoFoundation.dll._ZN4Poco4UTF88icompareERKSsPKc
    libPocoFoundation.dll._ZN4Poco4UTF88icompareERKSsS2_
    libPocoFoundation.dll._ZN4Poco4UTF88icompareERKSsjPKc
    libPocoFoundation.dll._ZN4Poco4UTF88icompareERKSsjS2_
    libPocoFoundation.dll._ZN4Poco4UTF88icompareERKSsjS2_j
    libPocoFoundation.dll._ZN4Poco4UTF88icompareERKSsjjN9__gnu_cxx17__normal_iteratorIPKcSsEES7_
    libPocoFoundation.dll._ZN4Poco4UTF88icompareERKSsjjPKc
    libPocoFoundation.dll._ZN4Poco4UTF88icompareERKSsjjS2_
    libPocoFoundation.dll._ZN4Poco4UTF88icompareERKSsjjS2_j
    libPocoFoundation.dll._ZN4Poco4UTF88icompareERKSsjjS2_jj
    libPocoFoundation.dll._ZN4Poco4UUID11fromNetworkEv
    libPocoFoundation.dll._ZN4Poco4UUID3dnsEv
    libPocoFoundation.dll._ZN4Poco4UUID3oidEv
    libPocoFoundation.dll._ZN4Poco4UUID3uriEv
    libPocoFoundation.dll._ZN4Poco4UUID4nullEv
    libPocoFoundation.dll._ZN4Poco4UUID4swapERS0_
    libPocoFoundation.dll._ZN4Poco4UUID4x500Ev
    libPocoFoundation.dll._ZN4Poco4UUID5parseERKSs
    libPocoFoundation.dll._ZN4Poco4UUID6nibbleEc
    libPocoFoundation.dll._ZN4Poco4UUID8copyFromEPKc
    libPocoFoundation.dll._ZN4Poco4UUID8tryParseERKSs
    libPocoFoundation.dll._ZN4Poco4UUID9appendHexERSsh
    libPocoFoundation.dll._ZN4Poco4UUID9appendHexERSsj
    libPocoFoundation.dll._ZN4Poco4UUID9appendHexERSst
    libPocoFoundation.dll._ZN4Poco4UUID9toNetworkEv
    libPocoFoundation.dll._ZN4Poco4UUIDC1EPKc
    libPocoFoundation.dll._ZN4Poco4UUIDC1EPKcNS0_7VersionE
    libPocoFoundation.dll._ZN4Poco4UUIDC1ERKS0_
    libPocoFoundation.dll._ZN4Poco4UUIDC1ERKSs
    libPocoFoundation.dll._ZN4Poco4UUIDC1EjjjtPh
    libPocoFoundation.dll._ZN4Poco4UUIDC1Ev
    libPocoFoundation.dll._ZN4Poco4UUIDC2EPKc
    libPocoFoundation.dll._ZN4Poco4UUIDC2EPKcNS0_7VersionE
    libPocoFoundation.dll._ZN4Poco4UUIDC2ERKS0_
    libPocoFoundation.dll._ZN4Poco4UUIDC2ERKSs
    libPocoFoundation.dll._ZN4Poco4UUIDC2EjjjtPh
    libPocoFoundation.dll._ZN4Poco4UUIDC2Ev
    libPocoFoundation.dll._ZN4Poco4UUIDD1Ev
    libPocoFoundation.dll._ZN4Poco4UUIDD2Ev
    libPocoFoundation.dll._ZN4Poco4UUIDaSERKS0_
    libPocoFoundation.dll._ZN4Poco4VoidC1ERKS0_
    libPocoFoundation.dll._ZN4Poco4VoidC1Ev
    libPocoFoundation.dll._ZN4Poco4VoidC2ERKS0_
    libPocoFoundation.dll._ZN4Poco4VoidC2Ev
    libPocoFoundation.dll._ZN4Poco4VoidD1Ev
    libPocoFoundation.dll._ZN4Poco4VoidD2Ev
    libPocoFoundation.dll._ZN4Poco4VoidaSERKS0_
    libPocoFoundation.dll._ZN4Poco4hashERKSs
    libPocoFoundation.dll._ZN4Poco5Ascii20CHARACTER_PROPERTIESE
    libPocoFoundation.dll._ZN4Poco5EventC1Eb
    libPocoFoundation.dll._ZN4Poco5EventC2Eb
    libPocoFoundation.dll._ZN4Poco5EventD1Ev
    libPocoFoundation.dll._ZN4Poco5EventD2Ev
    libPocoFoundation.dll._ZN4Poco5MutexC1Ev
    libPocoFoundation.dll._ZN4Poco5MutexC2Ev
    libPocoFoundation.dll._ZN4Poco5MutexD1Ev
    libPocoFoundation.dll._ZN4Poco5MutexD2Ev
    libPocoFoundation.dll._ZN4Poco5Timer16setStartIntervalEl
    libPocoFoundation.dll._ZN4Poco5Timer19setPeriodicIntervalEl
    libPocoFoundation.dll._ZN4Poco5Timer3runEv
    libPocoFoundation.dll._ZN4Poco5Timer4stopEv
    libPocoFoundation.dll._ZN4Poco5Timer5startERKNS_21AbstractTimerCallbackE
    libPocoFoundation.dll._ZN4Poco5Timer5startERKNS_21AbstractTimerCallbackENS_6Thread8PriorityE
    libPocoFoundation.dll._ZN4Poco5Timer5startERKNS_21AbstractTimerCallbackENS_6Thread8PriorityERNS_10ThreadPoolE
    libPocoFoundation.dll._ZN4Poco5Timer5startERKNS_21AbstractTimerCallbackERNS_10ThreadPoolE
    libPocoFoundation.dll._ZN4Poco5Timer7restartEl
    libPocoFoundation.dll._ZN4Poco5Timer7restartEv
    libPocoFoundation.dll._ZN4Poco5TimerC1Ell
    libPocoFoundation.dll._ZN4Poco5TimerC2Ell
    libPocoFoundation.dll._ZN4Poco5TimerD0Ev
    libPocoFoundation.dll._ZN4Poco5TimerD1Ev
    libPocoFoundation.dll._ZN4Poco5TimerD2Ev
    libPocoFoundation.dll._ZN4Poco5Token5startEcRSi
    libPocoFoundation.dll._ZN4Poco5Token6finishERSi
    libPocoFoundation.dll._ZN4Poco5TokenC1Ev
    libPocoFoundation.dll._ZN4Poco5TokenC2Ev
    libPocoFoundation.dll._ZN4Poco5TokenD0Ev
    libPocoFoundation.dll._ZN4Poco5TokenD1Ev
    libPocoFoundation.dll._ZN4Poco5TokenD2Ev
    libPocoFoundation.dll._ZN4Poco6LogIOS5rdbufEv
    libPocoFoundation.dll._ZN4Poco6LogIOSC1ERNS_6LoggerENS_7Message8PriorityE
    libPocoFoundation.dll._ZN4Poco6LogIOSC2ERNS_6LoggerENS_7Message8PriorityE
    libPocoFoundation.dll._ZN4Poco6LogIOSD0Ev
    libPocoFoundation.dll._ZN4Poco6LogIOSD1Ev
    libPocoFoundation.dll._ZN4Poco6LogIOSD2Ev
    libPocoFoundation.dll._ZN4Poco6Logger10formatDumpERSsPKvj
    libPocoFoundation.dll._ZN4Poco6Logger10parseLevelERKSs
    libPocoFoundation.dll._ZN4Poco6Logger10setChannelEPNS_7ChannelE
    libPocoFoundation.dll._ZN4Poco6Logger10setChannelERKSsPNS_7ChannelE
    libPocoFoundation.dll._ZN4Poco6Logger11_pLoggerMapE
    libPocoFoundation.dll._ZN4Poco6Logger11setPropertyERKSsS2_
    libPocoFoundation.dll._ZN4Poco6Logger11setPropertyERKSsS2_S2_
    libPocoFoundation.dll._ZN4Poco6Logger3addEPS0_
    libPocoFoundation.dll._ZN4Poco6Logger3getERKSs
    libPocoFoundation.dll._ZN4Poco6Logger3hasERKSs
    libPocoFoundation.dll._ZN4Poco6Logger3logERKNS_7MessageE
    libPocoFoundation.dll._ZN4Poco6Logger3logERKNS_9ExceptionE
    libPocoFoundation.dll._ZN4Poco6Logger3logERKNS_9ExceptionEPKci
    libPocoFoundation.dll._ZN4Poco6Logger4ROOTE
    libPocoFoundation.dll._ZN4Poco6Logger4dumpERKSsPKvjNS_7Message8PriorityE
    libPocoFoundation.dll._ZN4Poco6Logger4findERKSs
    libPocoFoundation.dll._ZN4Poco6Logger4rootEv
    libPocoFoundation.dll._ZN4Poco6Logger5namesERSt6vectorISsSaISsEE
    libPocoFoundation.dll._ZN4Poco6Logger6createERKSsPNS_7ChannelEi
    libPocoFoundation.dll._ZN4Poco6Logger6formatERKSsS2_
    libPocoFoundation.dll._ZN4Poco6Logger6formatERKSsS2_S2_
    libPocoFoundation.dll._ZN4Poco6Logger6formatERKSsS2_S2_S2_
    libPocoFoundation.dll._ZN4Poco6Logger6formatERKSsS2_S2_S2_S2_
    libPocoFoundation.dll._ZN4Poco6Logger6formatERKSsiPSs
    libPocoFoundation.dll._ZN4Poco6Logger6parentERKSs
    libPocoFoundation.dll._ZN4Poco6Logger7_mapMtxE
    libPocoFoundation.dll._ZN4Poco6Logger7destroyERKSs
    libPocoFoundation.dll._ZN4Poco6Logger8setLevelERKSs
    libPocoFoundation.dll._ZN4Poco6Logger8setLevelERKSsi
    libPocoFoundation.dll._ZN4Poco6Logger8setLevelEi
    libPocoFoundation.dll._ZN4Poco6Logger8shutdownEv
    libPocoFoundation.dll._ZN4Poco6Logger9unsafeGetERKSs
    libPocoFoundation.dll._ZN4Poco6LoggerC1ERKSsPNS_7ChannelEi
    libPocoFoundation.dll._ZN4Poco6LoggerC2ERKSsPNS_7ChannelEi
    libPocoFoundation.dll._ZN4Poco6LoggerD0Ev
    libPocoFoundation.dll._ZN4Poco6LoggerD1Ev
    libPocoFoundation.dll._ZN4Poco6LoggerD2Ev
    libPocoFoundation.dll._ZN4Poco6RWLockC1Ev
    libPocoFoundation.dll._ZN4Poco6RWLockC2Ev
    libPocoFoundation.dll._ZN4Poco6RWLockD1Ev
    libPocoFoundation.dll._ZN4Poco6RWLockD2Ev
    libPocoFoundation.dll._ZN4Poco6Random4nextEv
    libPocoFoundation.dll._ZN4Poco6Random4seedEj
    libPocoFoundation.dll._ZN4Poco6Random4seedEv
    libPocoFoundation.dll._ZN4Poco6Random9initStateEjPci
    libPocoFoundation.dll._ZN4Poco6RandomC1Ei
    libPocoFoundation.dll._ZN4Poco6RandomC2Ei
    libPocoFoundation.dll._ZN4Poco6RandomD1Ev
    libPocoFoundation.dll._ZN4Poco6RandomD2Ev
    libPocoFoundation.dll._ZN4Poco6TeeIOS5rdbufEv
    libPocoFoundation.dll._ZN4Poco6TeeIOS9addStreamERSo
    libPocoFoundation.dll._ZN4Poco6TeeIOSC1ERSi
    libPocoFoundation.dll._ZN4Poco6TeeIOSC1ERSo
    libPocoFoundation.dll._ZN4Poco6TeeIOSC1Ev
    libPocoFoundation.dll._ZN4Poco6TeeIOSC2ERSi
    libPocoFoundation.dll._ZN4Poco6TeeIOSC2ERSo
    libPocoFoundation.dll._ZN4Poco6TeeIOSC2Ev
    libPocoFoundation.dll._ZN4Poco6TeeIOSD0Ev
    libPocoFoundation.dll._ZN4Poco6TeeIOSD1Ev
    libPocoFoundation.dll._ZN4Poco6TeeIOSD2Ev
    libPocoFoundation.dll._ZN4Poco6Thread11setPriorityENS0_8PriorityE
    libPocoFoundation.dll._ZN4Poco6Thread3tlsEv
    libPocoFoundation.dll._ZN4Poco6Thread4joinEl
    libPocoFoundation.dll._ZN4Poco6Thread4joinEv
    libPocoFoundation.dll._ZN4Poco6Thread5startEPFvPvES1_
    libPocoFoundation.dll._ZN4Poco6Thread5startERNS_8RunnableE
    libPocoFoundation.dll._ZN4Poco6Thread7setNameERKSs
    libPocoFoundation.dll._ZN4Poco6Thread7tryJoinEl
    libPocoFoundation.dll._ZN4Poco6Thread8clearTLSEv
    libPocoFoundation.dll._ZN4Poco6Thread8makeNameEv
    libPocoFoundation.dll._ZN4Poco6Thread8uniqueIdEv
    libPocoFoundation.dll._ZN4Poco6ThreadC1ERKSs
    libPocoFoundation.dll._ZN4Poco6ThreadC1Ev
    libPocoFoundation.dll._ZN4Poco6ThreadC2ERKSs
    libPocoFoundation.dll._ZN4Poco6ThreadC2Ev
    libPocoFoundation.dll._ZN4Poco6ThreadD1Ev
    libPocoFoundation.dll._ZN4Poco6ThreadD2Ev
    libPocoFoundation.dll._ZN4Poco6formatERKSsRKNS_3AnyE
    libPocoFoundation.dll._ZN4Poco6formatERKSsRKNS_3AnyES4_
    libPocoFoundation.dll._ZN4Poco6formatERKSsRKNS_3AnyES4_S4_
    libPocoFoundation.dll._ZN4Poco6formatERKSsRKNS_3AnyES4_S4_S4_
    libPocoFoundation.dll._ZN4Poco6formatERKSsRKNS_3AnyES4_S4_S4_S4_
    libPocoFoundation.dll._ZN4Poco6formatERKSsRKNS_3AnyES4_S4_S4_S4_S4_
    libPocoFoundation.dll._ZN4Poco6formatERSsRKSsRKNS_3AnyE
    libPocoFoundation.dll._ZN4Poco6formatERSsRKSsRKNS_3AnyES5_
    libPocoFoundation.dll._ZN4Poco6formatERSsRKSsRKNS_3AnyES5_S5_
    libPocoFoundation.dll._ZN4Poco6formatERSsRKSsRKNS_3AnyES5_S5_S5_
    libPocoFoundation.dll._ZN4Poco6formatERSsRKSsRKNS_3AnyES5_S5_S5_S5_
    libPocoFoundation.dll._ZN4Poco6formatERSsRKSsRKNS_3AnyES5_S5_S5_S5_S5_
    libPocoFoundation.dll._ZN4Poco6formatERSsRKSsRKSt6vectorINS_3AnyESaIS4_EE
    libPocoFoundation.dll._ZN4Poco7AnyCastISsEEPT_PNS_3AnyE
    libPocoFoundation.dll._ZN4Poco7AnyCastIaEEPT_PNS_3AnyE
    libPocoFoundation.dll._ZN4Poco7AnyCastIaEET_RKNS_3AnyE
    libPocoFoundation.dll._ZN4Poco7AnyCastIbEEPT_PNS_3AnyE
    libPocoFoundation.dll._ZN4Poco7AnyCastIbEET_RKNS_3AnyE
    libPocoFoundation.dll._ZN4Poco7AnyCastIcEEPT_PNS_3AnyE
    libPocoFoundation.dll._ZN4Poco7AnyCastIcEET_RKNS_3AnyE
    libPocoFoundation.dll._ZN4Poco7AnyCastIdEEPT_PNS_3AnyE
    libPocoFoundation.dll._ZN4Poco7AnyCastIdEET_RKNS_3AnyE
    libPocoFoundation.dll._ZN4Poco7AnyCastIeEEPT_PNS_3AnyE
    libPocoFoundation.dll._ZN4Poco7AnyCastIeEET_RKNS_3AnyE
    libPocoFoundation.dll._ZN4Poco7AnyCastIfEEPT_PNS_3AnyE
    libPocoFoundation.dll._ZN4Poco7AnyCastIfEET_RKNS_3AnyE
    libPocoFoundation.dll._ZN4Poco7AnyCastIhEEPT_PNS_3AnyE
    libPocoFoundation.dll._ZN4Poco7AnyCastIhEET_RKNS_3AnyE
    libPocoFoundation.dll._ZN4Poco7AnyCastIiEEPT_PNS_3AnyE
    libPocoFoundation.dll._ZN4Poco7AnyCastIiEET_RKNS_3AnyE
    libPocoFoundation.dll._ZN4Poco7AnyCastIjEEPT_PNS_3AnyE
    libPocoFoundation.dll._ZN4Poco7AnyCastIjEET_RKNS_3AnyE
    libPocoFoundation.dll._ZN4Poco7AnyCastIlEEPT_PNS_3AnyE
    libPocoFoundation.dll._ZN4Poco7AnyCastIlEET_RKNS_3AnyE
    libPocoFoundation.dll._ZN4Poco7AnyCastImEEPT_PNS_3AnyE
    libPocoFoundation.dll._ZN4Poco7AnyCastImEET_RKNS_3AnyE
    libPocoFoundation.dll._ZN4Poco7AnyCastIsEEPT_PNS_3AnyE
    libPocoFoundation.dll._ZN4Poco7AnyCastIsEET_RKNS_3AnyE
    libPocoFoundation.dll._ZN4Poco7AnyCastItEEPT_PNS_3AnyE
    libPocoFoundation.dll._ZN4Poco7AnyCastItEET_RKNS_3AnyE
    libPocoFoundation.dll._ZN4Poco7AnyCastIxEEPT_PNS_3AnyE
    libPocoFoundation.dll._ZN4Poco7AnyCastIxEET_RKNS_3AnyE
    libPocoFoundation.dll._ZN4Poco7AnyCastIyEEPT_PNS_3AnyE
    libPocoFoundation.dll._ZN4Poco7AnyCastIyEET_RKNS_3AnyE
    libPocoFoundation.dll._ZN4Poco7AutoPtrINS_12NotificationEED1Ev
    libPocoFoundation.dll._ZN4Poco7AutoPtrINS_18ActiveRunnableBaseEED1Ev
    libPocoFoundation.dll._ZN4Poco7AutoPtrINS_4TaskEED1Ev
    libPocoFoundation.dll._ZN4Poco7AutoPtrINS_7ChannelEED1Ev
    libPocoFoundation.dll._ZN4Poco7AutoPtrINS_9FormatterEED1Ev
    libPocoFoundation.dll._ZN4Poco7Channel11setPropertyERKSsS2_
    libPocoFoundation.dll._ZN4Poco7Channel4openEv
    libPocoFoundation.dll._ZN4Poco7Channel5closeEv
    libPocoFoundation.dll._ZN4Poco7ChannelC1Ev
    libPocoFoundation.dll._ZN4Poco7ChannelC2Ev
    libPocoFoundation.dll._ZN4Poco7ChannelD0Ev
    libPocoFoundation.dll._ZN4Poco7ChannelD1Ev
    libPocoFoundation.dll._ZN4Poco7ChannelD2Ev
    libPocoFoundation.dll._ZN4Poco7FileIOS4openERKSsSt13_Ios_Openmode
    libPocoFoundation.dll._ZN4Poco7FileIOS5closeEv
    libPocoFoundation.dll._ZN4Poco7FileIOS5rdbufEv
    libPocoFoundation.dll._ZN4Poco7FileIOSC1ESt13_Ios_Openmode
    libPocoFoundation.dll._ZN4Poco7FileIOSC2ESt13_Ios_Openmode
    libPocoFoundation.dll._ZN4Poco7FileIOSD0Ev
    libPocoFoundation.dll._ZN4Poco7FileIOSD1Ev
    libPocoFoundation.dll._ZN4Poco7FileIOSD2Ev
    libPocoFoundation.dll._ZN4Poco7LogFileC1ERKSs
    libPocoFoundation.dll._ZN4Poco7LogFileC2ERKSs
    libPocoFoundation.dll._ZN4Poco7LogFileD1Ev
    libPocoFoundation.dll._ZN4Poco7LogFileD2Ev
    libPocoFoundation.dll._ZN4Poco7Message11setPriorityENS0_8PriorityE
    libPocoFoundation.dll._ZN4Poco7Message13setSourceFileEPKc
    libPocoFoundation.dll._ZN4Poco7Message13setSourceLineEi
    libPocoFoundation.dll._ZN4Poco7Message4initEv
    libPocoFoundation.dll._ZN4Poco7Message4swapERS0_
    libPocoFoundation.dll._ZN4Poco7Message6setPidEl
    libPocoFoundation.dll._ZN4Poco7Message6setTidEl
    libPocoFoundation.dll._ZN4Poco7Message7setTextERKSs
    libPocoFoundation.dll._ZN4Poco7Message7setTimeERKNS_9TimestampE
    libPocoFoundation.dll._ZN4Poco7Message9setSourceERKSs
    libPocoFoundation.dll._ZN4Poco7Message9setThreadERKSs
    libPocoFoundation.dll._ZN4Poco7MessageC1ERKS0_
    libPocoFoundation.dll._ZN4Poco7MessageC1ERKS0_RKSs
    libPocoFoundation.dll._ZN4Poco7MessageC1ERKSsS2_NS0_8PriorityE
    libPocoFoundation.dll._ZN4Poco7MessageC1ERKSsS2_NS0_8PriorityEPKci
    libPocoFoundation.dll._ZN4Poco7MessageC1Ev
    libPocoFoundation.dll._ZN4Poco7MessageC2ERKS0_
    libPocoFoundation.dll._ZN4Poco7MessageC2ERKS0_RKSs
    libPocoFoundation.dll._ZN4Poco7MessageC2ERKSsS2_NS0_8PriorityE
    libPocoFoundation.dll._ZN4Poco7MessageC2ERKSsS2_NS0_8PriorityEPKci
    libPocoFoundation.dll._ZN4Poco7MessageC2Ev
    libPocoFoundation.dll._ZN4Poco7MessageD1Ev
    libPocoFoundation.dll._ZN4Poco7MessageD2Ev
    libPocoFoundation.dll._ZN4Poco7MessageaSERKS0_
    libPocoFoundation.dll._ZN4Poco7MessageixERKSs
    libPocoFoundation.dll._ZN4Poco7NullIOSC1Ev
    libPocoFoundation.dll._ZN4Poco7NullIOSC2Ev
    libPocoFoundation.dll._ZN4Poco7NullIOSD0Ev
    libPocoFoundation.dll._ZN4Poco7NullIOSD1Ev
    libPocoFoundation.dll._ZN4Poco7NullIOSD2Ev
    libPocoFoundation.dll._ZN4Poco7PipeIOS5closeEv
    libPocoFoundation.dll._ZN4Poco7PipeIOS5rdbufEv
    libPocoFoundation.dll._ZN4Poco7PipeIOSC1ERKNS_4PipeESt13_Ios_Openmode
    libPocoFoundation.dll._ZN4Poco7PipeIOSC2ERKNS_4PipeESt13_Ios_Openmode
    libPocoFoundation.dll._ZN4Poco7PipeIOSD0Ev
    libPocoFoundation.dll._ZN4Poco7PipeIOSD1Ev
    libPocoFoundation.dll._ZN4Poco7PipeIOSD2Ev
    libPocoFoundation.dll._ZN4Poco7Process18requestTerminationEj
    libPocoFoundation.dll._ZN4Poco7Process4killERKNS_13ProcessHandleE
    libPocoFoundation.dll._ZN4Poco7Process4killEj
    libPocoFoundation.dll._ZN4Poco7Process4waitERKNS_13ProcessHandleE
    libPocoFoundation.dll._ZN4Poco7Process6launchERKSsRKSt6vectorISsSaISsEE
    libPocoFoundation.dll._ZN4Poco7Process6launchERKSsRKSt6vectorISsSaISsEEPNS_4PipeES9_S9_
    libPocoFoundation.dll._ZN4Poco7TLSSlotINS_23NestedDiagnosticContextEED0Ev
    libPocoFoundation.dll._ZN4Poco7TLSSlotINS_23NestedDiagnosticContextEED1Ev
    libPocoFoundation.dll._ZN4Poco7Unicode10propertiesEiRNS0_19CharacterPropertiesE
    libPocoFoundation.dll._ZN4Poco7Unicode7toLowerEi
    libPocoFoundation.dll._ZN4Poco7Unicode7toUpperEi
    libPocoFoundation.dll._ZN4Poco8Bugcheck11nullPointerEPKcS2_i
    libPocoFoundation.dll._ZN4Poco8Bugcheck4whatEPKcS2_i
    libPocoFoundation.dll._ZN4Poco8Bugcheck8bugcheckEPKcS2_i
    libPocoFoundation.dll._ZN4Poco8Bugcheck8bugcheckEPKci
    libPocoFoundation.dll._ZN4Poco8Bugcheck8debuggerEPKcS2_i
    libPocoFoundation.dll._ZN4Poco8Bugcheck8debuggerEPKci
    libPocoFoundation.dll._ZN4Poco8Bugcheck9assertionEPKcS2_i
    libPocoFoundation.dll._ZN4Poco8Checksum6updateEPKcj
    libPocoFoundation.dll._ZN4Poco8ChecksumC1ENS0_4TypeE
    libPocoFoundation.dll._ZN4Poco8ChecksumC1Ev
    libPocoFoundation.dll._ZN4Poco8ChecksumC2ENS0_4TypeE
    libPocoFoundation.dll._ZN4Poco8ChecksumC2Ev
    libPocoFoundation.dll._ZN4Poco8ChecksumD1Ev
    libPocoFoundation.dll._ZN4Poco8ChecksumD2Ev
    libPocoFoundation.dll._ZN4Poco8DateTime10checkLimitERsS1_s
    libPocoFoundation.dll._ZN4Poco8DateTime11daysOfMonthEii
    libPocoFoundation.dll._ZN4Poco8DateTime11toJulianDayEiiiiiiii
    libPocoFoundation.dll._ZN4Poco8DateTime14computeDaytimeEv
    libPocoFoundation.dll._ZN4Poco8DateTime16computeGregorianEd
    libPocoFoundation.dll._ZN4Poco8DateTime4swapERS0_
    libPocoFoundation.dll._ZN4Poco8DateTime6assignEiiiiiiii
    libPocoFoundation.dll._ZN4Poco8DateTime7isValidEiiiiiiii
    libPocoFoundation.dll._ZN4Poco8DateTime7makeUTCEi
    libPocoFoundation.dll._ZN4Poco8DateTime9makeLocalEi
    libPocoFoundation.dll._ZN4Poco8DateTime9normalizeEv
    libPocoFoundation.dll._ZN4Poco8DateTimeC1ERKNS_9TimestampE
    libPocoFoundation.dll._ZN4Poco8DateTimeC1ERKS0_
    libPocoFoundation.dll._ZN4Poco8DateTimeC1Ed
    libPocoFoundation.dll._ZN4Poco8DateTimeC1Eiiiiiiii
    libPocoFoundation.dll._ZN4Poco8DateTimeC1Ev
    libPocoFoundation.dll._ZN4Poco8DateTimeC1Exx
    libPocoFoundation.dll._ZN4Poco8DateTimeC2ERKNS_9TimestampE
    libPocoFoundation.dll._ZN4Poco8DateTimeC2ERKS0_
    libPocoFoundation.dll._ZN4Poco8DateTimeC2Ed
    libPocoFoundation.dll._ZN4Poco8DateTimeC2Eiiiiiiii
    libPocoFoundation.dll._ZN4Poco8DateTimeC2Ev
    libPocoFoundation.dll._ZN4Poco8DateTimeC2Exx
    libPocoFoundation.dll._ZN4Poco8DateTimeD1Ev
    libPocoFoundation.dll._ZN4Poco8DateTimeD2Ev
    libPocoFoundation.dll._ZN4Poco8DateTimeaSERKNS_9TimestampE
    libPocoFoundation.dll._ZN4Poco8DateTimeaSERKS0_
    libPocoFoundation.dll._ZN4Poco8DateTimeaSEd
    libPocoFoundation.dll._ZN4Poco8DateTimemIERKNS_8TimespanE
    libPocoFoundation.dll._ZN4Poco8DateTimepLERKNS_8TimespanE
    libPocoFoundation.dll._ZN4Poco8Debugger11isAvailableEv
    libPocoFoundation.dll._ZN4Poco8Debugger5enterEPKci
    libPocoFoundation.dll._ZN4Poco8Debugger5enterERKSs
    libPocoFoundation.dll._ZN4Poco8Debugger5enterERKSsPKci
    libPocoFoundation.dll._ZN4Poco8Debugger5enterEv
    libPocoFoundation.dll._ZN4Poco8Debugger7messageERKSs
    libPocoFoundation.dll._ZN4Poco8Debugger7messageERKSsPKci
    libPocoFoundation.dll._ZN4Poco8EOFTokenC1Ev
    libPocoFoundation.dll._ZN4Poco8EOFTokenC2Ev
    libPocoFoundation.dll._ZN4Poco8EOFTokenD0Ev
    libPocoFoundation.dll._ZN4Poco8EOFTokenD1Ev
    libPocoFoundation.dll._ZN4Poco8EOFTokenD2Ev
    libPocoFoundation.dll._ZN4Poco8FileImpl10removeImplEv
    libPocoFoundation.dll._ZN4Poco8FileImpl11setPathImplERKSs
    libPocoFoundation.dll._ZN4Poco8FileImpl11setSizeImplEy
    libPocoFoundation.dll._ZN4Poco8FileImpl12renameToImplERKSs
    libPocoFoundation.dll._ZN4Poco8FileImpl14createFileImplEv
    libPocoFoundation.dll._ZN4Poco8FileImpl16setWriteableImplEb
    libPocoFoundation.dll._ZN4Poco8FileImpl17setExecutableImplEb
    libPocoFoundation.dll._ZN4Poco8FileImpl19createDirectoryImplEv
    libPocoFoundation.dll._ZN4Poco8FileImpl19handleLastErrorImplERKSs
    libPocoFoundation.dll._ZN4Poco8FileImpl19setLastModifiedImplERKNS_9TimestampE
    libPocoFoundation.dll._ZN4Poco8FileImpl8swapImplERS0_
    libPocoFoundation.dll._ZN4Poco8FileImplC1ERKSs
    libPocoFoundation.dll._ZN4Poco8FileImplC1Ev
    libPocoFoundation.dll._ZN4Poco8FileImplC2ERKSs
    libPocoFoundation.dll._ZN4Poco8FileImplC2Ev
    libPocoFoundation.dll._ZN4Poco8FileImplD0Ev
    libPocoFoundation.dll._ZN4Poco8FileImplD1Ev
    libPocoFoundation.dll._ZN4Poco8FileImplD2Ev
    libPocoFoundation.dll._ZN4Poco8PathImpl10expandImplERKSs
    libPocoFoundation.dll._ZN4Poco8PathImpl11currentImplEv
    libPocoFoundation.dll._ZN4Poco8PathImpl13listRootsImplERSt6vectorISsSaISsEE
    libPocoFoundation.dll._ZN4Poco8PathImpl8homeImplEv
    libPocoFoundation.dll._ZN4Poco8PathImpl8nullImplEv
    libPocoFoundation.dll._ZN4Poco8PathImpl8tempImplEv
    libPocoFoundation.dll._ZN4Poco8PipeImpl10closeWriteEv
    libPocoFoundation.dll._ZN4Poco8PipeImpl10writeBytesEPKvi
    libPocoFoundation.dll._ZN4Poco8PipeImpl9closeReadEv
    libPocoFoundation.dll._ZN4Poco8PipeImpl9readBytesEPvi
    libPocoFoundation.dll._ZN4Poco8PipeImplC1Ev
    libPocoFoundation.dll._ZN4Poco8PipeImplC2Ev
    libPocoFoundation.dll._ZN4Poco8PipeImplD0Ev
    libPocoFoundation.dll._ZN4Poco8PipeImplD1Ev
    libPocoFoundation.dll._ZN4Poco8PipeImplD2Ev
    libPocoFoundation.dll._ZN4Poco8RunnableC1Ev
    libPocoFoundation.dll._ZN4Poco8RunnableC2Ev
    libPocoFoundation.dll._ZN4Poco8RunnableD0Ev
    libPocoFoundation.dll._ZN4Poco8RunnableD1Ev
    libPocoFoundation.dll._ZN4Poco8RunnableD2Ev
    libPocoFoundation.dll._ZN4Poco8Timespan12MILLISECONDSE
    libPocoFoundation.dll._ZN4Poco8Timespan4DAYSE
    libPocoFoundation.dll._ZN4Poco8Timespan4swapERS0_
    libPocoFoundation.dll._ZN4Poco8Timespan5HOURSE
    libPocoFoundation.dll._ZN4Poco8Timespan6assignEiiiii
    libPocoFoundation.dll._ZN4Poco8Timespan6assignEll
    libPocoFoundation.dll._ZN4Poco8Timespan7MINUTESE
    libPocoFoundation.dll._ZN4Poco8Timespan7SECONDSE
    libPocoFoundation.dll._ZN4Poco8TimespanC1ERKS0_
    libPocoFoundation.dll._ZN4Poco8TimespanC1Eiiiii
    libPocoFoundation.dll._ZN4Poco8TimespanC1Ell
    libPocoFoundation.dll._ZN4Poco8TimespanC1Ev
    libPocoFoundation.dll._ZN4Poco8TimespanC1Ex
    libPocoFoundation.dll._ZN4Poco8TimespanC2ERKS0_
    libPocoFoundation.dll._ZN4Poco8TimespanC2Eiiiii
    libPocoFoundation.dll._ZN4Poco8TimespanC2Ell
    libPocoFoundation.dll._ZN4Poco8TimespanC2Ev
    libPocoFoundation.dll._ZN4Poco8TimespanC2Ex
    libPocoFoundation.dll._ZN4Poco8TimespanD1Ev
    libPocoFoundation.dll._ZN4Poco8TimespanD2Ev
    libPocoFoundation.dll._ZN4Poco8TimespanaSERKS0_
    libPocoFoundation.dll._ZN4Poco8TimespanaSEx
    libPocoFoundation.dll._ZN4Poco8TimespanmIERKS0_
    libPocoFoundation.dll._ZN4Poco8TimespanmIEx
    libPocoFoundation.dll._ZN4Poco8TimespanpLERKS0_
    libPocoFoundation.dll._ZN4Poco8TimespanpLEx
    libPocoFoundation.dll._ZN4Poco8Timezone12standardNameEv
    libPocoFoundation.dll._ZN4Poco8Timezone3dstEv
    libPocoFoundation.dll._ZN4Poco8Timezone3tzdEv
    libPocoFoundation.dll._ZN4Poco8Timezone4nameEv
    libPocoFoundation.dll._ZN4Poco8Timezone5isDstERKNS_9TimestampE
    libPocoFoundation.dll._ZN4Poco8Timezone7dstNameEv
    libPocoFoundation.dll._ZN4Poco8Timezone9utcOffsetEv
    libPocoFoundation.dll._ZN4Poco8icompareISsEEiRKT_NS1_9size_typeES4_PKNS1_10value_typeE
    libPocoFoundation.dll._ZN4Poco8icompareISsEEiRKT_PKNS1_10value_typeE
    libPocoFoundation.dll._ZN4Poco8icompareISsEEiRKT_S3_
    libPocoFoundation.dll._ZN4Poco9Condition6signalEv
    libPocoFoundation.dll._ZN4Poco9Condition7dequeueERNS_5EventE
    libPocoFoundation.dll._ZN4Poco9Condition7dequeueEv
    libPocoFoundation.dll._ZN4Poco9Condition7enqueueERNS_5EventE
    libPocoFoundation.dll._ZN4Poco9Condition9broadcastEv
    libPocoFoundation.dll._ZN4Poco9ConditionC1Ev
    libPocoFoundation.dll._ZN4Poco9ConditionC2Ev
    libPocoFoundation.dll._ZN4Poco9ConditionD1Ev
    libPocoFoundation.dll._ZN4Poco9ConditionD2Ev
    libPocoFoundation.dll._ZN4Poco9DigestBuf11BUFFER_SIZEE
    libPocoFoundation.dll._ZN4Poco9DigestBuf13writeToDeviceEPKci
    libPocoFoundation.dll._ZN4Poco9DigestBuf14readFromDeviceEPci
    libPocoFoundation.dll._ZN4Poco9DigestBuf5closeEv
    libPocoFoundation.dll._ZN4Poco9DigestBufC1ERNS_12DigestEngineE
    libPocoFoundation.dll._ZN4Poco9DigestBufC1ERNS_12DigestEngineERSi
    libPocoFoundation.dll._ZN4Poco9DigestBufC1ERNS_12DigestEngineERSo
    libPocoFoundation.dll._ZN4Poco9DigestBufC2ERNS_12DigestEngineE
    libPocoFoundation.dll._ZN4Poco9DigestBufC2ERNS_12DigestEngineERSi
    libPocoFoundation.dll._ZN4Poco9DigestBufC2ERNS_12DigestEngineERSo
    libPocoFoundation.dll._ZN4Poco9DigestBufD0Ev
    libPocoFoundation.dll._ZN4Poco9DigestBufD1Ev
    libPocoFoundation.dll._ZN4Poco9DigestBufD2Ev
    libPocoFoundation.dll._ZN4Poco9DigestIOS5rdbufEv
    libPocoFoundation.dll._ZN4Poco9DigestIOSC1ERNS_12DigestEngineE
    libPocoFoundation.dll._ZN4Poco9DigestIOSC1ERNS_12DigestEngineERSi
    libPocoFoundation.dll._ZN4Poco9DigestIOSC1ERNS_12DigestEngineERSo
    libPocoFoundation.dll._ZN4Poco9DigestIOSC2ERNS_12DigestEngineE
    libPocoFoundation.dll._ZN4Poco9DigestIOSC2ERNS_12DigestEngineERSi
    libPocoFoundation.dll._ZN4Poco9DigestIOSC2ERNS_12DigestEngineERSo
    libPocoFoundation.dll._ZN4Poco9DigestIOSD0Ev
    libPocoFoundation.dll._ZN4Poco9DigestIOSD1Ev
    libPocoFoundation.dll._ZN4Poco9DigestIOSD2Ev
    libPocoFoundation.dll._ZN4Poco9EventArgsC1Ev
    libPocoFoundation.dll._ZN4Poco9EventArgsC2Ev
    libPocoFoundation.dll._ZN4Poco9EventArgsD0Ev
    libPocoFoundation.dll._ZN4Poco9EventArgsD1Ev
    libPocoFoundation.dll._ZN4Poco9EventArgsD2Ev
    libPocoFoundation.dll._ZN4Poco9EventImpl8waitImplEl
    libPocoFoundation.dll._ZN4Poco9EventImpl8waitImplEv
    libPocoFoundation.dll._ZN4Poco9EventImplC1Eb
    libPocoFoundation.dll._ZN4Poco9EventImplC2Eb
    libPocoFoundation.dll._ZN4Poco9EventImplD1Ev
    libPocoFoundation.dll._ZN4Poco9EventImplD2Ev
    libPocoFoundation.dll._ZN4Poco9Exception15extendedMessageERKSs
    libPocoFoundation.dll._ZN4Poco9ExceptionC1ERKS0_
    libPocoFoundation.dll._ZN4Poco9ExceptionC1ERKSsRKS0_i
    libPocoFoundation.dll._ZN4Poco9ExceptionC1ERKSsS2_i
    libPocoFoundation.dll._ZN4Poco9ExceptionC1ERKSsi
    libPocoFoundation.dll._ZN4Poco9ExceptionC1Ei
    libPocoFoundation.dll._ZN4Poco9ExceptionC2ERKS0_
    libPocoFoundation.dll._ZN4Poco9ExceptionC2ERKSsRKS0_i
    libPocoFoundation.dll._ZN4Poco9ExceptionC2ERKSsS2_i
    libPocoFoundation.dll._ZN4Poco9ExceptionC2ERKSsi
    libPocoFoundation.dll._ZN4Poco9ExceptionC2Ei
    libPocoFoundation.dll._ZN4Poco9ExceptionD0Ev
    libPocoFoundation.dll._ZN4Poco9ExceptionD1Ev
    libPocoFoundation.dll._ZN4Poco9ExceptionD2Ev
    libPocoFoundation.dll._ZN4Poco9ExceptionaSERKS0_
    libPocoFoundation.dll._ZN4Poco9FastMutexC1Ev
    libPocoFoundation.dll._ZN4Poco9FastMutexC2Ev
    libPocoFoundation.dll._ZN4Poco9FastMutexD1Ev
    libPocoFoundation.dll._ZN4Poco9FastMutexD2Ev
    libPocoFoundation.dll._ZN4Poco9Formatter11setPropertyERKSsS2_
    libPocoFoundation.dll._ZN4Poco9FormatterC1Ev
    libPocoFoundation.dll._ZN4Poco9FormatterC2Ev
    libPocoFoundation.dll._ZN4Poco9FormatterD0Ev
    libPocoFoundation.dll._ZN4Poco9FormatterD1Ev
    libPocoFoundation.dll._ZN4Poco9FormatterD2Ev
    libPocoFoundation.dll._ZN4Poco9LogStream11informationERKSs
    libPocoFoundation.dll._ZN4Poco9LogStream11informationEv
    libPocoFoundation.dll._ZN4Poco9LogStream5debugERKSs
    libPocoFoundation.dll._ZN4Poco9LogStream5debugEv
    libPocoFoundation.dll._ZN4Poco9LogStream5errorERKSs
    libPocoFoundation.dll._ZN4Poco9LogStream5errorEv
    libPocoFoundation.dll._ZN4Poco9LogStream5fatalERKSs
    libPocoFoundation.dll._ZN4Poco9LogStream5fatalEv
    libPocoFoundation.dll._ZN4Poco9LogStream5traceERKSs
    libPocoFoundation.dll._ZN4Poco9LogStream5traceEv
    libPocoFoundation.dll._ZN4Poco9LogStream6noticeERKSs
    libPocoFoundation.dll._ZN4Poco9LogStream6noticeEv
    libPocoFoundation.dll._ZN4Poco9LogStream7warningERKSs
    libPocoFoundation.dll._ZN4Poco9LogStream7warningEv
    libPocoFoundation.dll._ZN4Poco9LogStream8criticalERKSs
    libPocoFoundation.dll._ZN4Poco9LogStream8criticalEv
    libPocoFoundation.dll._ZN4Poco9LogStream8priorityENS_7Message8PriorityE
    libPocoFoundation.dll._ZN4Poco9LogStreamC1ERKSsNS_7Message8PriorityE
    libPocoFoundation.dll._ZN4Poco9LogStreamC1ERNS_6LoggerENS_7Message8PriorityE
    libPocoFoundation.dll._ZN4Poco9LogStreamC2ERKSsNS_7Message8PriorityE
    libPocoFoundation.dll._ZN4Poco9LogStreamC2ERNS_6LoggerENS_7Message8PriorityE
    libPocoFoundation.dll._ZN4Poco9LogStreamD0Ev
    libPocoFoundation.dll._ZN4Poco9LogStreamD1Ev
    libPocoFoundation.dll._ZN4Poco9LogStreamD2Ev
    libPocoFoundation.dll._ZN4Poco9MD4Engine10updateImplEPKvj
    libPocoFoundation.dll._ZN4Poco9MD4Engine5resetEv
    libPocoFoundation.dll._ZN4Poco9MD4Engine6decodeEPjPKhj
    libPocoFoundation.dll._ZN4Poco9MD4Engine6digestEv
    libPocoFoundation.dll._ZN4Poco9MD4Engine6encodeEPhPKjj
    libPocoFoundation.dll._ZN4Poco9MD4Engine9transformEPjPKh
    libPocoFoundation.dll._ZN4Poco9MD4EngineC1Ev
    libPocoFoundation.dll._ZN4Poco9MD4EngineC2Ev
    libPocoFoundation.dll._ZN4Poco9MD4EngineD0Ev
    libPocoFoundation.dll._ZN4Poco9MD4EngineD1Ev
    libPocoFoundation.dll._ZN4Poco9MD4EngineD2Ev
    libPocoFoundation.dll._ZN4Poco9MD5Engine10updateImplEPKvj
    libPocoFoundation.dll._ZN4Poco9MD5Engine5resetEv
    libPocoFoundation.dll._ZN4Poco9MD5Engine6decodeEPjPKhj
    libPocoFoundation.dll._ZN4Poco9MD5Engine6digestEv
    libPocoFoundation.dll._ZN4Poco9MD5Engine6encodeEPhPKjj
    libPocoFoundation.dll._ZN4Poco9MD5Engine9transformEPjPKh
    libPocoFoundation.dll._ZN4Poco9MD5EngineC1Ev
    libPocoFoundation.dll._ZN4Poco9MD5EngineC2Ev
    libPocoFoundation.dll._ZN4Poco9MD5EngineD0Ev
    libPocoFoundation.dll._ZN4Poco9MD5EngineD1Ev
    libPocoFoundation.dll._ZN4Poco9MD5EngineD2Ev
    libPocoFoundation.dll._ZN4Poco9MemoryIOSC1EPci
    libPocoFoundation.dll._ZN4Poco9MemoryIOSC2EPci
    libPocoFoundation.dll._ZN4Poco9MemoryIOSD0Ev
    libPocoFoundation.dll._ZN4Poco9MemoryIOSD1Ev
    libPocoFoundation.dll._ZN4Poco9MemoryIOSD2Ev
    libPocoFoundation.dll._ZN4Poco9MutexImpl11tryLockImplEl
    libPocoFoundation.dll._ZN4Poco9MutexImplC1Ev
    libPocoFoundation.dll._ZN4Poco9MutexImplC2Ev
    libPocoFoundation.dll._ZN4Poco9MutexImplD1Ev
    libPocoFoundation.dll._ZN4Poco9MutexImplD2Ev
    libPocoFoundation.dll._ZN4Poco9RandomBuf14readFromDeviceEPci
    libPocoFoundation.dll._ZN4Poco9RandomBufC1Ev
    libPocoFoundation.dll._ZN4Poco9RandomBufC2Ev
    libPocoFoundation.dll._ZN4Poco9RandomBufD0Ev
    libPocoFoundation.dll._ZN4Poco9RandomBufD1Ev
    libPocoFoundation.dll._ZN4Poco9RandomBufD2Ev
    libPocoFoundation.dll._ZN4Poco9RandomIOS5rdbufEv
    libPocoFoundation.dll._ZN4Poco9RandomIOSC1Ev
    libPocoFoundation.dll._ZN4Poco9RandomIOSC2Ev
    libPocoFoundation.dll._ZN4Poco9RandomIOSD0Ev
    libPocoFoundation.dll._ZN4Poco9RandomIOSD1Ev
    libPocoFoundation.dll._ZN4Poco9RandomIOSD2Ev
    libPocoFoundation.dll._ZN4Poco9SemaphoreC1Ei
    libPocoFoundation.dll._ZN4Poco9SemaphoreC1Eii
    libPocoFoundation.dll._ZN4Poco9SemaphoreC2Ei
    libPocoFoundation.dll._ZN4Poco9SemaphoreC2Eii
    libPocoFoundation.dll._ZN4Poco9SemaphoreD1Ev
    libPocoFoundation.dll._ZN4Poco9SemaphoreD2Ev
    libPocoFoundation.dll._ZN4Poco9SharedPtrINS_12TextEncodingENS_16ReferenceCounterENS_13ReleasePolicyIS1_EEE7releaseEv
    libPocoFoundation.dll._ZN4Poco9SharedPtrINS_16AbstractObserverENS_16ReferenceCounterENS_13ReleasePolicyIS1_EEE7releaseEv
    libPocoFoundation.dll._ZN4Poco9Stopwatch5resetEv
    libPocoFoundation.dll._ZN4Poco9Stopwatch7restartEv
    libPocoFoundation.dll._ZN4Poco9StopwatchC1Ev
    libPocoFoundation.dll._ZN4Poco9StopwatchC2Ev
    libPocoFoundation.dll._ZN4Poco9StopwatchD1Ev
    libPocoFoundation.dll._ZN4Poco9StopwatchD2Ev
    libPocoFoundation.dll._ZN4Poco9Timestamp11fromUtcTimeEx
    libPocoFoundation.dll._ZN4Poco9Timestamp13fromEpochTimeEl
    libPocoFoundation.dll._ZN4Poco9Timestamp14fromFileTimeNPEjj
    libPocoFoundation.dll._ZN4Poco9Timestamp4swapERS0_
    libPocoFoundation.dll._ZN4Poco9Timestamp6updateEv
    libPocoFoundation.dll._ZN4Poco9TimestampC1ERKS0_
    libPocoFoundation.dll._ZN4Poco9TimestampC1Ev
    libPocoFoundation.dll._ZN4Poco9TimestampC1Ex
    libPocoFoundation.dll._ZN4Poco9TimestampC2ERKS0_
    libPocoFoundation.dll._ZN4Poco9TimestampC2Ev
    libPocoFoundation.dll._ZN4Poco9TimestampC2Ex
    libPocoFoundation.dll._ZN4Poco9TimestampD1Ev
    libPocoFoundation.dll._ZN4Poco9TimestampD2Ev
    libPocoFoundation.dll._ZN4Poco9TimestampaSERKS0_
    libPocoFoundation.dll._ZN4Poco9TimestampaSEx
    libPocoFoundation.dll._ZNK4Poco10DynamicAnyaaERKS0_
    libPocoFoundation.dll._ZNK4Poco10DynamicAnydvERKS0_
    libPocoFoundation.dll._ZNK4Poco10DynamicAnyeqEPKc
    libPocoFoundation.dll._ZNK4Poco10DynamicAnyeqERKS0_
    libPocoFoundation.dll._ZNK4Poco10DynamicAnygeERKS0_
    libPocoFoundation.dll._ZNK4Poco10DynamicAnygtERKS0_
    libPocoFoundation.dll._ZNK4Poco10DynamicAnyleERKS0_
    libPocoFoundation.dll._ZNK4Poco10DynamicAnyltERKS0_
    libPocoFoundation.dll._ZNK4Poco10DynamicAnymiERKS0_
    libPocoFoundation.dll._ZNK4Poco10DynamicAnymlERKS0_
    libPocoFoundation.dll._ZNK4Poco10DynamicAnyneEPKc
    libPocoFoundation.dll._ZNK4Poco10DynamicAnyneERKS0_
    libPocoFoundation.dll._ZNK4Poco10DynamicAnyooERKS0_
    libPocoFoundation.dll._ZNK4Poco10DynamicAnyplERKS0_
    libPocoFoundation.dll._ZNK4Poco10SHA1Engine12digestLengthEv
    libPocoFoundation.dll._ZNK4Poco10ThreadImpl13isRunningImplEv
    libPocoFoundation.dll._ZNK4Poco10ThreadPool4usedEv
    libPocoFoundation.dll._ZNK4Poco10ThreadPool8capacityEv
    libPocoFoundation.dll._ZNK4Poco10ThreadPool9allocatedEv
    libPocoFoundation.dll._ZNK4Poco10ThreadPool9availableEv
    libPocoFoundation.dll._ZNK4Poco11FileChannel11getPropertyERKSs
    libPocoFoundation.dll._ZNK4Poco11FileChannel12creationDateEv
    libPocoFoundation.dll._ZNK4Poco11FileChannel4pathEv
    libPocoFoundation.dll._ZNK4Poco11FileChannel4sizeEv
    libPocoFoundation.dll._ZNK4Poco11IOException4nameEv
    libPocoFoundation.dll._ZNK4Poco11IOException5cloneEv
    libPocoFoundation.dll._ZNK4Poco11IOException7rethrowEv
    libPocoFoundation.dll._ZNK4Poco11IOException9classNameEv
    libPocoFoundation.dll._ZNK4Poco11LogFileImpl16creationDateImplEv
    libPocoFoundation.dll._ZNK4Poco11LogFileImpl8pathImplEv
    libPocoFoundation.dll._ZNK4Poco11LogFileImpl8sizeImplEv
    libPocoFoundation.dll._ZNK4Poco11TaskManager8taskListEv
    libPocoFoundation.dll._ZNK4Poco12AsyncChannel10getChannelEv
    libPocoFoundation.dll._ZNK4Poco12InstantiatorINS_11FileChannelENS_7ChannelEE14createInstanceEv
    libPocoFoundation.dll._ZNK4Poco12InstantiatorINS_11NullChannelENS_7ChannelEE14createInstanceEv
    libPocoFoundation.dll._ZNK4Poco12InstantiatorINS_12AsyncChannelENS_7ChannelEE14createInstanceEv
    libPocoFoundation.dll._ZNK4Poco12InstantiatorINS_15EventLogChannelENS_7ChannelEE14createInstanceEv
    libPocoFoundation.dll._ZNK4Poco12InstantiatorINS_15SplitterChannelENS_7ChannelEE14createInstanceEv
    libPocoFoundation.dll._ZNK4Poco12InstantiatorINS_16PatternFormatterENS_9FormatterEE14createInstanceEv
    libPocoFoundation.dll._ZNK4Poco12InstantiatorINS_17FormattingChannelENS_7ChannelEE14createInstanceEv
    libPocoFoundation.dll._ZNK4Poco12InstantiatorINS_21WindowsConsoleChannelENS_7ChannelEE14createInstanceEv
    libPocoFoundation.dll._ZNK4Poco12InvalidToken10tokenClassEv
    libPocoFoundation.dll._ZNK4Poco12Notification4nameEv
    libPocoFoundation.dll._ZNK4Poco12SharedMemory3endEv
    libPocoFoundation.dll._ZNK4Poco12SharedMemory5beginEv
    libPocoFoundation.dll._ZNK4Poco12TextEncoding12queryConvertEPKhi
    libPocoFoundation.dll._ZNK4Poco12TextEncoding14sequenceLengthEPKhi
    libPocoFoundation.dll._ZNK4Poco12TextEncoding7convertEPKh
    libPocoFoundation.dll._ZNK4Poco12TextEncoding7convertEiPhi
    libPocoFoundation.dll._ZNK4Poco12TextIteratordeEv
    libPocoFoundation.dll._ZNK4Poco12UTF8Encoding12characterMapEv
    libPocoFoundation.dll._ZNK4Poco12UTF8Encoding12queryConvertEPKhi
    libPocoFoundation.dll._ZNK4Poco12UTF8Encoding13canonicalNameEv
    libPocoFoundation.dll._ZNK4Poco12UTF8Encoding14sequenceLengthEPKhi
    libPocoFoundation.dll._ZNK4Poco12UTF8Encoding3isAERKSs
    libPocoFoundation.dll._ZNK4Poco12UTF8Encoding7convertEPKh
    libPocoFoundation.dll._ZNK4Poco12UTF8Encoding7convertEiPhi
    libPocoFoundation.dll._ZNK4Poco13ASCIIEncoding12characterMapEv
    libPocoFoundation.dll._ZNK4Poco13ASCIIEncoding12queryConvertEPKhi
    libPocoFoundation.dll._ZNK4Poco13ASCIIEncoding13canonicalNameEv
    libPocoFoundation.dll._ZNK4Poco13ASCIIEncoding14sequenceLengthEPKhi
    libPocoFoundation.dll._ZNK4Poco13ASCIIEncoding3isAERKSs
    libPocoFoundation.dll._ZNK4Poco13ASCIIEncoding7convertEPKh
    libPocoFoundation.dll._ZNK4Poco13ASCIIEncoding7convertEiPhi
    libPocoFoundation.dll._ZNK4Poco13DataException4nameEv
    libPocoFoundation.dll._ZNK4Poco13DataException5cloneEv
    libPocoFoundation.dll._ZNK4Poco13DataException7rethrowEv
    libPocoFoundation.dll._ZNK4Poco13DataException9classNameEv
    libPocoFoundation.dll._ZNK4Poco13FileException4nameEv
    libPocoFoundation.dll._ZNK4Poco13FileException5cloneEv
    libPocoFoundation.dll._ZNK4Poco13FileException7rethrowEv
    libPocoFoundation.dll._ZNK4Poco13FileException9classNameEv
    libPocoFoundation.dll._ZNK4Poco13HashStatistic8toStringEv
    libPocoFoundation.dll._ZNK4Poco13LocalDateTime3utcEv
    libPocoFoundation.dll._ZNK4Poco13LocalDateTime9dstOffsetERi
    libPocoFoundation.dll._ZNK4Poco13LocalDateTimeeqERKS0_
    libPocoFoundation.dll._ZNK4Poco13LocalDateTimegeERKS0_
    libPocoFoundation.dll._ZNK4Poco13LocalDateTimegtERKS0_
    libPocoFoundation.dll._ZNK4Poco13LocalDateTimeleERKS0_
    libPocoFoundation.dll._ZNK4Poco13LocalDateTimeltERKS0_
    libPocoFoundation.dll._ZNK4Poco13LocalDateTimemiERKNS_8TimespanE
    libPocoFoundation.dll._ZNK4Poco13LocalDateTimemiERKS0_
    libPocoFoundation.dll._ZNK4Poco13LocalDateTimeneERKS0_
    libPocoFoundation.dll._ZNK4Poco13LocalDateTimeplERKNS_8TimespanE
    libPocoFoundation.dll._ZNK4Poco13ProcessHandle2idEv
    libPocoFoundation.dll._ZNK4Poco13ProcessHandle4waitEv
    libPocoFoundation.dll._ZNK4Poco13SharedLibrary7getPathEv
    libPocoFoundation.dll._ZNK4Poco13SharedLibrary8isLoadedEv
    libPocoFoundation.dll._ZNK4Poco13UTF16Encoding12characterMapEv
    libPocoFoundation.dll._ZNK4Poco13UTF16Encoding12getByteOrderEv
    libPocoFoundation.dll._ZNK4Poco13UTF16Encoding12queryConvertEPKhi
    libPocoFoundation.dll._ZNK4Poco13UTF16Encoding13canonicalNameEv
    libPocoFoundation.dll._ZNK4Poco13UTF16Encoding14sequenceLengthEPKhi
    libPocoFoundation.dll._ZNK4Poco13UTF16Encoding3isAERKSs
    libPocoFoundation.dll._ZNK4Poco13UTF16Encoding7convertEPKh
    libPocoFoundation.dll._ZNK4Poco13UTF16Encoding7convertEiPhi
    libPocoFoundation.dll._ZNK4Poco14Latin1Encoding12characterMapEv
    libPocoFoundation.dll._ZNK4Poco14Latin1Encoding12queryConvertEPKhi
    libPocoFoundation.dll._ZNK4Poco14Latin1Encoding13canonicalNameEv
    libPocoFoundation.dll._ZNK4Poco14Latin1Encoding14sequenceLengthEPKhi
    libPocoFoundation.dll._ZNK4Poco14Latin1Encoding3isAERKSs
    libPocoFoundation.dll._ZNK4Poco14Latin1Encoding7convertEPKh
    libPocoFoundation.dll._ZNK4Poco14Latin1Encoding7convertEiPhi
    libPocoFoundation.dll._ZNK4Poco14Latin9Encoding12characterMapEv
    libPocoFoundation.dll._ZNK4Poco14Latin9Encoding12queryConvertEPKhi
    libPocoFoundation.dll._ZNK4Poco14Latin9Encoding13canonicalNameEv
    libPocoFoundation.dll._ZNK4Poco14Latin9Encoding14sequenceLengthEPKhi
    libPocoFoundation.dll._ZNK4Poco14Latin9Encoding3isAERKSs
    libPocoFoundation.dll._ZNK4Poco14Latin9Encoding7convertEPKh
    libPocoFoundation.dll._ZNK4Poco14Latin9Encoding7convertEiPhi
    libPocoFoundation.dll._ZNK4Poco14LoggingFactory13createChannelERKSs
    libPocoFoundation.dll._ZNK4Poco14LoggingFactory15createFormatterERKSs
    libPocoFoundation.dll._ZNK4Poco14LogicException4nameEv
    libPocoFoundation.dll._ZNK4Poco14LogicException5cloneEv
    libPocoFoundation.dll._ZNK4Poco14LogicException7rethrowEv
    libPocoFoundation.dll._ZNK4Poco14LogicException9classNameEv
    libPocoFoundation.dll._ZNK4Poco14RangeException4nameEv
    libPocoFoundation.dll._ZNK4Poco14RangeException5cloneEv
    libPocoFoundation.dll._ZNK4Poco14RangeException7rethrowEv
    libPocoFoundation.dll._ZNK4Poco14RangeException9classNameEv
    libPocoFoundation.dll._ZNK4Poco15EventLogChannel11getPropertyERKSs
    libPocoFoundation.dll._ZNK4Poco15EventLogChannel13setUpRegistryEv
    libPocoFoundation.dll._ZNK4Poco15ExistsException4nameEv
    libPocoFoundation.dll._ZNK4Poco15ExistsException5cloneEv
    libPocoFoundation.dll._ZNK4Poco15ExistsException7rethrowEv
    libPocoFoundation.dll._ZNK4Poco15ExistsException9classNameEv
    libPocoFoundation.dll._ZNK4Poco15LoggingRegistry14channelForNameERKSs
    libPocoFoundation.dll._ZNK4Poco15LoggingRegistry16formatterForNameERKSs
    libPocoFoundation.dll._ZNK4Poco15SignalException4nameEv
    libPocoFoundation.dll._ZNK4Poco15SignalException5cloneEv
    libPocoFoundation.dll._ZNK4Poco15SignalException7rethrowEv
    libPocoFoundation.dll._ZNK4Poco15SignalException9classNameEv
    libPocoFoundation.dll._ZNK4Poco15SplitterChannel5countEv
    libPocoFoundation.dll._ZNK4Poco15SyntaxException4nameEv
    libPocoFoundation.dll._ZNK4Poco15SyntaxException5cloneEv
    libPocoFoundation.dll._ZNK4Poco15SyntaxException7rethrowEv
    libPocoFoundation.dll._ZNK4Poco15SyntaxException9classNameEv
    libPocoFoundation.dll._ZNK4Poco15SystemException4nameEv
    libPocoFoundation.dll._ZNK4Poco15SystemException5cloneEv
    libPocoFoundation.dll._ZNK4Poco15SystemException7rethrowEv
    libPocoFoundation.dll._ZNK4Poco15SystemException9classNameEv
    libPocoFoundation.dll._ZNK4Poco15URIStreamOpener4openERKNS_3URIE
    libPocoFoundation.dll._ZNK4Poco15URIStreamOpener4openERKSs
    libPocoFoundation.dll._ZNK4Poco15URIStreamOpener4openERKSsS2_
    libPocoFoundation.dll._ZNK4Poco15URIStreamOpener7openURIERKSsRKNS_3URIE
    libPocoFoundation.dll._ZNK4Poco15URIStreamOpener8openFileERKNS_4PathE
    libPocoFoundation.dll._ZNK4Poco15WhitespaceToken10tokenClassEv
    libPocoFoundation.dll._ZNK4Poco16BadCastException4nameEv
    libPocoFoundation.dll._ZNK4Poco16BadCastException5cloneEv
    libPocoFoundation.dll._ZNK4Poco16BadCastException7rethrowEv
    libPocoFoundation.dll._ZNK4Poco16BadCastException9classNameEv
    libPocoFoundation.dll._ZNK4Poco16Base64EncoderBuf13getLineLengthEv
    libPocoFoundation.dll._ZNK4Poco16PatternFormatter11getPropertyERKSs
    libPocoFoundation.dll._ZNK4Poco16RuntimeException4nameEv
    libPocoFoundation.dll._ZNK4Poco16RuntimeException5cloneEv
    libPocoFoundation.dll._ZNK4Poco16RuntimeException7rethrowEv
    libPocoFoundation.dll._ZNK4Poco16RuntimeException9classNameEv
    libPocoFoundation.dll._ZNK4Poco16TimeoutException4nameEv
    libPocoFoundation.dll._ZNK4Poco16TimeoutException5cloneEv
    libPocoFoundation.dll._ZNK4Poco16TimeoutException7rethrowEv
    libPocoFoundation.dll._ZNK4Poco16TimeoutException9classNameEv
    libPocoFoundation.dll._ZNK4Poco17BugcheckException4nameEv
    libPocoFoundation.dll._ZNK4Poco17BugcheckException5cloneEv
    libPocoFoundation.dll._ZNK4Poco17BugcheckException7rethrowEv
    libPocoFoundation.dll._ZNK4Poco17BugcheckException9classNameEv
    libPocoFoundation.dll._ZNK4Poco17FormattingChannel10getChannelEv
    libPocoFoundation.dll._ZNK4Poco17FormattingChannel12getFormatterEv
    libPocoFoundation.dll._ZNK4Poco17NotFoundException4nameEv
    libPocoFoundation.dll._ZNK4Poco17NotFoundException5cloneEv
    libPocoFoundation.dll._ZNK4Poco17NotFoundException7rethrowEv
    libPocoFoundation.dll._ZNK4Poco17NotFoundException9classNameEv
    libPocoFoundation.dll._ZNK4Poco17NotificationQueue14hasIdleThreadsEv
    libPocoFoundation.dll._ZNK4Poco17NotificationQueue4sizeEv
    libPocoFoundation.dll._ZNK4Poco17NotificationQueue5emptyEv
    libPocoFoundation.dll._ZNK4Poco17OpenFileException4nameEv
    libPocoFoundation.dll._ZNK4Poco17OpenFileException5cloneEv
    libPocoFoundation.dll._ZNK4Poco17OpenFileException7rethrowEv
    libPocoFoundation.dll._ZNK4Poco17OpenFileException9classNameEv
    libPocoFoundation.dll._ZNK4Poco17ProcessHandleImpl2idEv
    libPocoFoundation.dll._ZNK4Poco17ProcessHandleImpl4waitEv
    libPocoFoundation.dll._ZNK4Poco17ProcessHandleImpl7processEv
    libPocoFoundation.dll._ZNK4Poco17ProtocolException4nameEv
    libPocoFoundation.dll._ZNK4Poco17ProtocolException5cloneEv
    libPocoFoundation.dll._ZNK4Poco17ProtocolException7rethrowEv
    libPocoFoundation.dll._ZNK4Poco17ProtocolException9classNameEv
    libPocoFoundation.dll._ZNK4Poco17ReadFileException4nameEv
    libPocoFoundation.dll._ZNK4Poco17ReadFileException5cloneEv
    libPocoFoundation.dll._ZNK4Poco17ReadFileException7rethrowEv
    libPocoFoundation.dll._ZNK4Poco17ReadFileException9classNameEv
    libPocoFoundation.dll._ZNK4Poco17RegularExpression5matchERKSsj
    libPocoFoundation.dll._ZNK4Poco17RegularExpression5matchERKSsjRNS0_5MatchEi
    libPocoFoundation.dll._ZNK4Poco17RegularExpression5matchERKSsjRSt6vectorINS0_5MatchESaIS4_EEi
    libPocoFoundation.dll._ZNK4Poco17RegularExpression5matchERKSsji
    libPocoFoundation.dll._ZNK4Poco17RegularExpression5splitERKSsjRSt6vectorISsSaISsEEi
    libPocoFoundation.dll._ZNK4Poco17RegularExpression5substERSsjRKSsi
    libPocoFoundation.dll._ZNK4Poco17RegularExpression7extractERKSsRSsi
    libPocoFoundation.dll._ZNK4Poco17RegularExpression7extractERKSsjRSsi
    libPocoFoundation.dll._ZNK4Poco17RegularExpression8substOneERSsjRKSsi
    libPocoFoundation.dll._ZNK4Poco17SharedLibraryImpl11getPathImplEv
    libPocoFoundation.dll._ZNK4Poco17SharedLibraryImpl12isLoadedImplEv
    libPocoFoundation.dll._ZNK4Poco17SimpleFileChannel11getPropertyERKSs
    libPocoFoundation.dll._ZNK4Poco17SimpleFileChannel12creationDateEv
    libPocoFoundation.dll._ZNK4Poco17SimpleFileChannel13secondaryPathEv
    libPocoFoundation.dll._ZNK4Poco17SimpleFileChannel4pathEv
    libPocoFoundation.dll._ZNK4Poco17SimpleFileChannel4sizeEv
    libPocoFoundation.dll._ZNK4Poco18NotificationCenter12hasObserversEv
    libPocoFoundation.dll._ZNK4Poco18NotificationCenter14countObserversEv
    libPocoFoundation.dll._ZNK4Poco18NullValueException4nameEv
    libPocoFoundation.dll._ZNK4Poco18NullValueException5cloneEv
    libPocoFoundation.dll._ZNK4Poco18NullValueException7rethrowEv
    libPocoFoundation.dll._ZNK4Poco18NullValueException9classNameEv
    libPocoFoundation.dll._ZNK4Poco18StreamConverterBuf6errorsEv
    libPocoFoundation.dll._ZNK4Poco18StreamConverterIOS6errorsEv
    libPocoFoundation.dll._ZNK4Poco18TextBufferIteratordeEv
    libPocoFoundation.dll._ZNK4Poco18UnhandledException4nameEv
    libPocoFoundation.dll._ZNK4Poco18UnhandledException5cloneEv
    libPocoFoundation.dll._ZNK4Poco18UnhandledException7rethrowEv
    libPocoFoundation.dll._ZNK4Poco18UnhandledException9classNameEv
    libPocoFoundation.dll._ZNK4Poco18WriteFileException4nameEv
    libPocoFoundation.dll._ZNK4Poco18WriteFileException5cloneEv
    libPocoFoundation.dll._ZNK4Poco18WriteFileException7rethrowEv
    libPocoFoundation.dll._ZNK4Poco18WriteFileException9classNameEv
    libPocoFoundation.dll._ZNK4Poco19CreateFileException4nameEv
    libPocoFoundation.dll._ZNK4Poco19CreateFileException5cloneEv
    libPocoFoundation.dll._ZNK4Poco19CreateFileException7rethrowEv
    libPocoFoundation.dll._ZNK4Poco19CreateFileException9classNameEv
    libPocoFoundation.dll._ZNK4Poco19DataFormatException4nameEv
    libPocoFoundation.dll._ZNK4Poco19DataFormatException5cloneEv
    libPocoFoundation.dll._ZNK4Poco19DataFormatException7rethrowEv
    libPocoFoundation.dll._ZNK4Poco19DataFormatException9classNameEv
    libPocoFoundation.dll._ZNK4Poco19FileExistsException4nameEv
    libPocoFoundation.dll._ZNK4Poco19FileExistsException5cloneEv
    libPocoFoundation.dll._ZNK4Poco19FileExistsException7rethrowEv
    libPocoFoundation.dll._ZNK4Poco19FileExistsException9classNameEv
    libPocoFoundation.dll._ZNK4Poco19HexBinaryEncoderBuf13getLineLengthEv
    libPocoFoundation.dll._ZNK4Poco19PathSyntaxException4nameEv
    libPocoFoundation.dll._ZNK4Poco19PathSyntaxException5cloneEv
    libPocoFoundation.dll._ZNK4Poco19PathSyntaxException7rethrowEv
    libPocoFoundation.dll._ZNK4Poco19PathSyntaxException9classNameEv
    libPocoFoundation.dll._ZNK4Poco19Windows1252Encoding12characterMapEv
    libPocoFoundation.dll._ZNK4Poco19Windows1252Encoding12queryConvertEPKhi
    libPocoFoundation.dll._ZNK4Poco19Windows1252Encoding13canonicalNameEv
    libPocoFoundation.dll._ZNK4Poco19Windows1252Encoding14sequenceLengthEPKhi
    libPocoFoundation.dll._ZNK4Poco19Windows1252Encoding3isAERKSs
    libPocoFoundation.dll._ZNK4Poco19Windows1252Encoding7convertEPKh
    libPocoFoundation.dll._ZNK4Poco19Windows1252Encoding7convertEiPhi
    libPocoFoundation.dll._ZNK4Poco20ApplicationException4nameEv
    libPocoFoundation.dll._ZNK4Poco20ApplicationException5cloneEv
    libPocoFoundation.dll._ZNK4Poco20ApplicationException7rethrowEv
    libPocoFoundation.dll._ZNK4Poco20ApplicationException9classNameEv
    libPocoFoundation.dll._ZNK4Poco20DynamicAnyHolderImplISsE4typeEv
    libPocoFoundation.dll._ZNK4Poco20DynamicAnyHolderImplISsE5cloneEv
    libPocoFoundation.dll._ZNK4Poco20DynamicAnyHolderImplISsE7convertERNS_13LocalDateTimeE
    libPocoFoundation.dll._ZNK4Poco20DynamicAnyHolderImplISsE7convertERNS_8DateTimeE
    libPocoFoundation.dll._ZNK4Poco20DynamicAnyHolderImplISsE7convertERNS_9TimestampE
    libPocoFoundation.dll._ZNK4Poco20DynamicAnyHolderImplISsE7convertERSs
    libPocoFoundation.dll._ZNK4Poco20DynamicAnyHolderImplISsE7convertERa
    libPocoFoundation.dll._ZNK4Poco20DynamicAnyHolderImplISsE7convertERb
    libPocoFoundation.dll._ZNK4Poco20DynamicAnyHolderImplISsE7convertERc
    libPocoFoundation.dll._ZNK4Poco20DynamicAnyHolderImplISsE7convertERd
    libPocoFoundation.dll._ZNK4Poco20DynamicAnyHolderImplISsE7convertERf
    libPocoFoundation.dll._ZNK4Poco20DynamicAnyHolderImplISsE7convertERh
    libPocoFoundation.dll._ZNK4Poco20DynamicAnyHolderImplISsE7convertERi
    libPocoFoundation.dll._ZNK4Poco20DynamicAnyHolderImplISsE7convertERj
    libPocoFoundation.dll._ZNK4Poco20DynamicAnyHolderImplISsE7convertERs
    libPocoFoundation.dll._ZNK4Poco20DynamicAnyHolderImplISsE7convertERt
    libPocoFoundation.dll._ZNK4Poco20DynamicAnyHolderImplISsE7convertERx
    libPocoFoundation.dll._ZNK4Poco20DynamicAnyHolderImplISsE7convertERy
    libPocoFoundation.dll._ZNK4Poco20DynamicAnyHolderImplISsE7isArrayEv
    libPocoFoundation.dll._ZNK4Poco20DynamicAnyHolderImplISsE8isSignedEv
    libPocoFoundation.dll._ZNK4Poco20DynamicAnyHolderImplISsE8isStringEv
    libPocoFoundation.dll._ZNK4Poco20DynamicAnyHolderImplISsE9isIntegerEv
    libPocoFoundation.dll._ZNK4Poco20DynamicAnyHolderImplISsE9isNumericEv
    libPocoFoundation.dll._ZNK4Poco20DynamicAnyHolderImplIdE4typeEv
    libPocoFoundation.dll._ZNK4Poco20DynamicAnyHolderImplIdE5cloneEv
    libPocoFoundation.dll._ZNK4Poco20DynamicAnyHolderImplIdE7convertERNS_13LocalDateTimeE
    libPocoFoundation.dll._ZNK4Poco20DynamicAnyHolderImplIdE7convertERNS_8DateTimeE
    libPocoFoundation.dll._ZNK4Poco20DynamicAnyHolderImplIdE7convertERNS_9TimestampE
    libPocoFoundation.dll._ZNK4Poco20DynamicAnyHolderImplIdE7convertERSs
    libPocoFoundation.dll._ZNK4Poco20DynamicAnyHolderImplIdE7convertERa
    libPocoFoundation.dll._ZNK4Poco20DynamicAnyHolderImplIdE7convertERb
    libPocoFoundation.dll._ZNK4Poco20DynamicAnyHolderImplIdE7convertERc
    libPocoFoundation.dll._ZNK4Poco20DynamicAnyHolderImplIdE7convertERd
    libPocoFoundation.dll._ZNK4Poco20DynamicAnyHolderImplIdE7convertERf
    libPocoFoundation.dll._ZNK4Poco20DynamicAnyHolderImplIdE7convertERh
    libPocoFoundation.dll._ZNK4Poco20DynamicAnyHolderImplIdE7convertERi
    libPocoFoundation.dll._ZNK4Poco20DynamicAnyHolderImplIdE7convertERj
    libPocoFoundation.dll._ZNK4Poco20DynamicAnyHolderImplIdE7convertERs
    libPocoFoundation.dll._ZNK4Poco20DynamicAnyHolderImplIdE7convertERt
    libPocoFoundation.dll._ZNK4Poco20DynamicAnyHolderImplIdE7convertERx
    libPocoFoundation.dll._ZNK4Poco20DynamicAnyHolderImplIdE7convertERy
    libPocoFoundation.dll._ZNK4Poco20DynamicAnyHolderImplIdE7isArrayEv
    libPocoFoundation.dll._ZNK4Poco20DynamicAnyHolderImplIdE8isSignedEv
    libPocoFoundation.dll._ZNK4Poco20DynamicAnyHolderImplIdE8isStringEv
    libPocoFoundation.dll._ZNK4Poco20DynamicAnyHolderImplIdE9isIntegerEv
    libPocoFoundation.dll._ZNK4Poco20DynamicAnyHolderImplIdE9isNumericEv
    libPocoFoundation.dll._ZNK4Poco20DynamicAnyHolderImplIiE4typeEv
    libPocoFoundation.dll._ZNK4Poco20DynamicAnyHolderImplIiE5cloneEv
    libPocoFoundation.dll._ZNK4Poco20DynamicAnyHolderImplIiE7convertERNS_13LocalDateTimeE
    libPocoFoundation.dll._ZNK4Poco20DynamicAnyHolderImplIiE7convertERNS_8DateTimeE
    libPocoFoundation.dll._ZNK4Poco20DynamicAnyHolderImplIiE7convertERNS_9TimestampE
    libPocoFoundation.dll._ZNK4Poco20DynamicAnyHolderImplIiE7convertERSs
    libPocoFoundation.dll._ZNK4Poco20DynamicAnyHolderImplIiE7convertERa
    libPocoFoundation.dll._ZNK4Poco20DynamicAnyHolderImplIiE7convertERb
    libPocoFoundation.dll._ZNK4Poco20DynamicAnyHolderImplIiE7convertERc
    libPocoFoundation.dll._ZNK4Poco20DynamicAnyHolderImplIiE7convertERd
    libPocoFoundation.dll._ZNK4Poco20DynamicAnyHolderImplIiE7convertERf
    libPocoFoundation.dll._ZNK4Poco20DynamicAnyHolderImplIiE7convertERh
    libPocoFoundation.dll._ZNK4Poco20DynamicAnyHolderImplIiE7convertERi
    libPocoFoundation.dll._ZNK4Poco20DynamicAnyHolderImplIiE7convertERj
    libPocoFoundation.dll._ZNK4Poco20DynamicAnyHolderImplIiE7convertERs
    libPocoFoundation.dll._ZNK4Poco20DynamicAnyHolderImplIiE7convertERt
    libPocoFoundation.dll._ZNK4Poco20DynamicAnyHolderImplIiE7convertERx
    libPocoFoundation.dll._ZNK4Poco20DynamicAnyHolderImplIiE7convertERy
    libPocoFoundation.dll._ZNK4Poco20DynamicAnyHolderImplIiE7isArrayEv
    libPocoFoundation.dll._ZNK4Poco20DynamicAnyHolderImplIiE8isSignedEv
    libPocoFoundation.dll._ZNK4Poco20DynamicAnyHolderImplIiE8isStringEv
    libPocoFoundation.dll._ZNK4Poco20DynamicAnyHolderImplIiE9isIntegerEv
    libPocoFoundation.dll._ZNK4Poco20DynamicAnyHolderImplIiE9isNumericEv
    libPocoFoundation.dll._ZNK4Poco20DynamicAnyHolderImplIxE4typeEv
    libPocoFoundation.dll._ZNK4Poco20DynamicAnyHolderImplIxE5cloneEv
    libPocoFoundation.dll._ZNK4Poco20DynamicAnyHolderImplIxE7convertERNS_13LocalDateTimeE
    libPocoFoundation.dll._ZNK4Poco20DynamicAnyHolderImplIxE7convertERNS_8DateTimeE
    libPocoFoundation.dll._ZNK4Poco20DynamicAnyHolderImplIxE7convertERNS_9TimestampE
    libPocoFoundation.dll._ZNK4Poco20DynamicAnyHolderImplIxE7convertERSs
    libPocoFoundation.dll._ZNK4Poco20DynamicAnyHolderImplIxE7convertERa
    libPocoFoundation.dll._ZNK4Poco20DynamicAnyHolderImplIxE7convertERb
    libPocoFoundation.dll._ZNK4Poco20DynamicAnyHolderImplIxE7convertERc
    libPocoFoundation.dll._ZNK4Poco20DynamicAnyHolderImplIxE7convertERd
    libPocoFoundation.dll._ZNK4Poco20DynamicAnyHolderImplIxE7convertERf
    libPocoFoundation.dll._ZNK4Poco20DynamicAnyHolderImplIxE7convertERh
    libPocoFoundation.dll._ZNK4Poco20DynamicAnyHolderImplIxE7convertERi
    libPocoFoundation.dll._ZNK4Poco20DynamicAnyHolderImplIxE7convertERj
    libPocoFoundation.dll._ZNK4Poco20DynamicAnyHolderImplIxE7convertERs
    libPocoFoundation.dll._ZNK4Poco20DynamicAnyHolderImplIxE7convertERt
    libPocoFoundation.dll._ZNK4Poco20DynamicAnyHolderImplIxE7convertERx
    libPocoFoundation.dll._ZNK4Poco20DynamicAnyHolderImplIxE7convertERy
    libPocoFoundation.dll._ZNK4Poco20DynamicAnyHolderImplIxE7isArrayEv
    libPocoFoundation.dll._ZNK4Poco20DynamicAnyHolderImplIxE8isSignedEv
    libPocoFoundation.dll._ZNK4Poco20DynamicAnyHolderImplIxE8isStringEv
    libPocoFoundation.dll._ZNK4Poco20DynamicAnyHolderImplIxE9isIntegerEv
    libPocoFoundation.dll._ZNK4Poco20DynamicAnyHolderImplIxE9isNumericEv
    libPocoFoundation.dll._ZNK4Poco20DynamicAnyHolderImplIyE4typeEv
    libPocoFoundation.dll._ZNK4Poco20DynamicAnyHolderImplIyE5cloneEv
    libPocoFoundation.dll._ZNK4Poco20DynamicAnyHolderImplIyE7convertERNS_13LocalDateTimeE
    libPocoFoundation.dll._ZNK4Poco20DynamicAnyHolderImplIyE7convertERNS_8DateTimeE
    libPocoFoundation.dll._ZNK4Poco20DynamicAnyHolderImplIyE7convertERNS_9TimestampE
    libPocoFoundation.dll._ZNK4Poco20DynamicAnyHolderImplIyE7convertERSs
    libPocoFoundation.dll._ZNK4Poco20DynamicAnyHolderImplIyE7convertERa
    libPocoFoundation.dll._ZNK4Poco20DynamicAnyHolderImplIyE7convertERb
    libPocoFoundation.dll._ZNK4Poco20DynamicAnyHolderImplIyE7convertERc
    libPocoFoundation.dll._ZNK4Poco20DynamicAnyHolderImplIyE7convertERd
    libPocoFoundation.dll._ZNK4Poco20DynamicAnyHolderImplIyE7convertERf
    libPocoFoundation.dll._ZNK4Poco20DynamicAnyHolderImplIyE7convertERh
    libPocoFoundation.dll._ZNK4Poco20DynamicAnyHolderImplIyE7convertERi
    libPocoFoundation.dll._ZNK4Poco20DynamicAnyHolderImplIyE7convertERj
    libPocoFoundation.dll._ZNK4Poco20DynamicAnyHolderImplIyE7convertERs
    libPocoFoundation.dll._ZNK4Poco20DynamicAnyHolderImplIyE7convertERt
    libPocoFoundation.dll._ZNK4Poco20DynamicAnyHolderImplIyE7convertERx
    libPocoFoundation.dll._ZNK4Poco20DynamicAnyHolderImplIyE7convertERy
    libPocoFoundation.dll._ZNK4Poco20DynamicAnyHolderImplIyE7isArrayEv
    libPocoFoundation.dll._ZNK4Poco20DynamicAnyHolderImplIyE8isSignedEv
    libPocoFoundation.dll._ZNK4Poco20DynamicAnyHolderImplIyE8isStringEv
    libPocoFoundation.dll._ZNK4Poco20DynamicAnyHolderImplIyE9isIntegerEv
    libPocoFoundation.dll._ZNK4Poco20DynamicAnyHolderImplIyE9isNumericEv
    libPocoFoundation.dll._ZNK4Poco20LibraryLoadException4nameEv
    libPocoFoundation.dll._ZNK4Poco20LibraryLoadException5cloneEv
    libPocoFoundation.dll._ZNK4Poco20LibraryLoadException7rethrowEv
    libPocoFoundation.dll._ZNK4Poco20LibraryLoadException9classNameEv
    libPocoFoundation.dll._ZNK4Poco20NullPointerException4nameEv
    libPocoFoundation.dll._ZNK4Poco20NullPointerException5cloneEv
    libPocoFoundation.dll._ZNK4Poco20NullPointerException7rethrowEv
    libPocoFoundation.dll._ZNK4Poco20NullPointerException9classNameEv
    libPocoFoundation.dll._ZNK4Poco20OutOfMemoryException4nameEv
    libPocoFoundation.dll._ZNK4Poco20OutOfMemoryException5cloneEv
    libPocoFoundation.dll._ZNK4Poco20OutOfMemoryException7rethrowEv
    libPocoFoundation.dll._ZNK4Poco20OutOfMemoryException9classNameEv
    libPocoFoundation.dll._ZNK4Poco21DirectoryIteratorImpl3getEv
    libPocoFoundation.dll._ZNK4Poco21FileNotFoundException4nameEv
    libPocoFoundation.dll._ZNK4Poco21FileNotFoundException5cloneEv
    libPocoFoundation.dll._ZNK4Poco21FileNotFoundException7rethrowEv
    libPocoFoundation.dll._ZNK4Poco21FileNotFoundException9classNameEv
    libPocoFoundation.dll._ZNK4Poco21FileReadOnlyException4nameEv
    libPocoFoundation.dll._ZNK4Poco21FileReadOnlyException5cloneEv
    libPocoFoundation.dll._ZNK4Poco21FileReadOnlyException7rethrowEv
    libPocoFoundation.dll._ZNK4Poco21FileReadOnlyException9classNameEv
    libPocoFoundation.dll._ZNK4Poco21IllegalStateException4nameEv
    libPocoFoundation.dll._ZNK4Poco21IllegalStateException5cloneEv
    libPocoFoundation.dll._ZNK4Poco21IllegalStateException7rethrowEv
    libPocoFoundation.dll._ZNK4Poco21IllegalStateException9classNameEv
    libPocoFoundation.dll._ZNK4Poco21NoPermissionException4nameEv
    libPocoFoundation.dll._ZNK4Poco21NoPermissionException5cloneEv
    libPocoFoundation.dll._ZNK4Poco21NoPermissionException7rethrowEv
    libPocoFoundation.dll._ZNK4Poco21NoPermissionException9classNameEv
    libPocoFoundation.dll._ZNK4Poco21PathNotFoundException4nameEv
    libPocoFoundation.dll._ZNK4Poco21PathNotFoundException5cloneEv
    libPocoFoundation.dll._ZNK4Poco21PathNotFoundException7rethrowEv
    libPocoFoundation.dll._ZNK4Poco21PathNotFoundException9classNameEv
    libPocoFoundation.dll._ZNK4Poco21PoolOverflowException4nameEv
    libPocoFoundation.dll._ZNK4Poco21PoolOverflowException5cloneEv
    libPocoFoundation.dll._ZNK4Poco21PoolOverflowException7rethrowEv
    libPocoFoundation.dll._ZNK4Poco21PoolOverflowException9classNameEv
    libPocoFoundation.dll._ZNK4Poco22InvalidAccessException4nameEv
    libPocoFoundation.dll._ZNK4Poco22InvalidAccessException5cloneEv
    libPocoFoundation.dll._ZNK4Poco22InvalidAccessException7rethrowEv
    libPocoFoundation.dll._ZNK4Poco22InvalidAccessException9classNameEv
    libPocoFoundation.dll._ZNK4Poco22LineEndingConverterIOS10getNewLineEv
    libPocoFoundation.dll._ZNK4Poco22TimedNotificationQueue4sizeEv
    libPocoFoundation.dll._ZNK4Poco22TimedNotificationQueue5emptyEv
    libPocoFoundation.dll._ZNK4Poco23NestedDiagnosticContext4dumpERSo
    libPocoFoundation.dll._ZNK4Poco23NestedDiagnosticContext4dumpERSoRKSs
    libPocoFoundation.dll._ZNK4Poco23NestedDiagnosticContext5depthEv
    libPocoFoundation.dll._ZNK4Poco23NestedDiagnosticContext8toStringEv
    libPocoFoundation.dll._ZNK4Poco23NotImplementedException4nameEv
    libPocoFoundation.dll._ZNK4Poco23NotImplementedException5cloneEv
    libPocoFoundation.dll._ZNK4Poco23NotImplementedException7rethrowEv
    libPocoFoundation.dll._ZNK4Poco23NotImplementedException9classNameEv
    libPocoFoundation.dll._ZNK4Poco24InvalidArgumentException4nameEv
    libPocoFoundation.dll._ZNK4Poco24InvalidArgumentException5cloneEv
    libPocoFoundation.dll._ZNK4Poco24InvalidArgumentException7rethrowEv
    libPocoFoundation.dll._ZNK4Poco24InvalidArgumentException9classNameEv
    libPocoFoundation.dll._ZNK4Poco25FileAccessDeniedException4nameEv
    libPocoFoundation.dll._ZNK4Poco25FileAccessDeniedException5cloneEv
    libPocoFoundation.dll._ZNK4Poco25FileAccessDeniedException7rethrowEv
    libPocoFoundation.dll._ZNK4Poco25FileAccessDeniedException9classNameEv
    libPocoFoundation.dll._ZNK4Poco25PriorityNotificationQueue14hasIdleThreadsEv
    libPocoFoundation.dll._ZNK4Poco25PriorityNotificationQueue4sizeEv
    libPocoFoundation.dll._ZNK4Poco25PriorityNotificationQueue5emptyEv
    libPocoFoundation.dll._ZNK4Poco25UnknownURISchemeException4nameEv
    libPocoFoundation.dll._ZNK4Poco25UnknownURISchemeException5cloneEv
    libPocoFoundation.dll._ZNK4Poco25UnknownURISchemeException7rethrowEv
    libPocoFoundation.dll._ZNK4Poco25UnknownURISchemeException9classNameEv
    libPocoFoundation.dll._ZNK4Poco26CircularReferenceException4nameEv
    libPocoFoundation.dll._ZNK4Poco26CircularReferenceException5cloneEv
    libPocoFoundation.dll._ZNK4Poco26CircularReferenceException7rethrowEv
    libPocoFoundation.dll._ZNK4Poco26CircularReferenceException9classNameEv
    libPocoFoundation.dll._ZNK4Poco26NoThreadAvailableException4nameEv
    libPocoFoundation.dll._ZNK4Poco26NoThreadAvailableException5cloneEv
    libPocoFoundation.dll._ZNK4Poco26NoThreadAvailableException7rethrowEv
    libPocoFoundation.dll._ZNK4Poco26NoThreadAvailableException9classNameEv
    libPocoFoundation.dll._ZNK4Poco26RegularExpressionException4nameEv
    libPocoFoundation.dll._ZNK4Poco26RegularExpressionException5cloneEv
    libPocoFoundation.dll._ZNK4Poco26RegularExpressionException7rethrowEv
    libPocoFoundation.dll._ZNK4Poco26RegularExpressionException9classNameEv
    libPocoFoundation.dll._ZNK4Poco27AssertionViolationException4nameEv
    libPocoFoundation.dll._ZNK4Poco27AssertionViolationException5cloneEv
    libPocoFoundation.dll._ZNK4Poco27AssertionViolationException7rethrowEv
    libPocoFoundation.dll._ZNK4Poco27AssertionViolationException9classNameEv
    libPocoFoundation.dll._ZNK4Poco28LineEndingConverterStreamBuf10getNewLineEv
    libPocoFoundation.dll._ZNK4Poco29LibraryAlreadyLoadedException4nameEv
    libPocoFoundation.dll._ZNK4Poco29LibraryAlreadyLoadedException5cloneEv
    libPocoFoundation.dll._ZNK4Poco29LibraryAlreadyLoadedException7rethrowEv
    libPocoFoundation.dll._ZNK4Poco29LibraryAlreadyLoadedException9classNameEv
    libPocoFoundation.dll._ZNK4Poco29PropertyNotSupportedException4nameEv
    libPocoFoundation.dll._ZNK4Poco29PropertyNotSupportedException5cloneEv
    libPocoFoundation.dll._ZNK4Poco29PropertyNotSupportedException7rethrowEv
    libPocoFoundation.dll._ZNK4Poco29PropertyNotSupportedException9classNameEv
    libPocoFoundation.dll._ZNK4Poco3URI10getPathEtcEv
    libPocoFoundation.dll._ZNK4Poco3URI10isRelativeEv
    libPocoFoundation.dll._ZNK4Poco3URI12getAuthorityEv
    libPocoFoundation.dll._ZNK4Poco3URI15getPathAndQueryEv
    libPocoFoundation.dll._ZNK4Poco3URI15isWellKnownPortEv
    libPocoFoundation.dll._ZNK4Poco3URI16getWellKnownPortEv
    libPocoFoundation.dll._ZNK4Poco3URI5emptyEv
    libPocoFoundation.dll._ZNK4Poco3URI6equalsERKS0_
    libPocoFoundation.dll._ZNK4Poco3URI7getPortEv
    libPocoFoundation.dll._ZNK4Poco3URI8getQueryEv
    libPocoFoundation.dll._ZNK4Poco3URI8toStringEv
    libPocoFoundation.dll._ZNK4Poco3URIeqERKS0_
    libPocoFoundation.dll._ZNK4Poco3URIeqERKSs
    libPocoFoundation.dll._ZNK4Poco3URIneERKS0_
    libPocoFoundation.dll._ZNK4Poco3URIneERKSs
    libPocoFoundation.dll._ZNK4Poco4File10canExecuteEv
    libPocoFoundation.dll._ZNK4Poco4File11isDirectoryEv
    libPocoFoundation.dll._ZNK4Poco4File13copyDirectoryERKSs
    libPocoFoundation.dll._ZNK4Poco4File15getLastModifiedEv
    libPocoFoundation.dll._ZNK4Poco4File4listERSt6vectorIS0_SaIS0_EE
    libPocoFoundation.dll._ZNK4Poco4File4listERSt6vectorISsSaISsEE
    libPocoFoundation.dll._ZNK4Poco4File6copyToERKSs
    libPocoFoundation.dll._ZNK4Poco4File6existsEv
    libPocoFoundation.dll._ZNK4Poco4File6isFileEv
    libPocoFoundation.dll._ZNK4Poco4File6isLinkEv
    libPocoFoundation.dll._ZNK4Poco4File7canReadEv
    libPocoFoundation.dll._ZNK4Poco4File7createdEv
    libPocoFoundation.dll._ZNK4Poco4File7getSizeEv
    libPocoFoundation.dll._ZNK4Poco4File8canWriteEv
    libPocoFoundation.dll._ZNK4Poco4File8isDeviceEv
    libPocoFoundation.dll._ZNK4Poco4File8isHiddenEv
    libPocoFoundation.dll._ZNK4Poco4Path11getBaseNameEv
    libPocoFoundation.dll._ZNK4Poco4Path12buildWindowsEv
    libPocoFoundation.dll._ZNK4Poco4Path12getExtensionEv
    libPocoFoundation.dll._ZNK4Poco4Path6parentEv
    libPocoFoundation.dll._ZNK4Poco4Path8absoluteERKS0_
    libPocoFoundation.dll._ZNK4Poco4Path8absoluteEv
    libPocoFoundation.dll._ZNK4Poco4Path8buildVMSEv
    libPocoFoundation.dll._ZNK4Poco4Path8toStringENS0_5StyleE
    libPocoFoundation.dll._ZNK4Poco4Path8toStringEv
    libPocoFoundation.dll._ZNK4Poco4Path9buildUnixEv
    libPocoFoundation.dll._ZNK4Poco4Path9directoryEi
    libPocoFoundation.dll._ZNK4Poco4PathixEi
    libPocoFoundation.dll._ZNK4Poco4UUID6copyToEPc
    libPocoFoundation.dll._ZNK4Poco4UUID7compareERKS0_
    libPocoFoundation.dll._ZNK4Poco4UUID7variantEv
    libPocoFoundation.dll._ZNK4Poco4UUID8toStringEv
    libPocoFoundation.dll._ZNK4Poco5Timer16getStartIntervalEv
    libPocoFoundation.dll._ZNK4Poco5Timer19getPeriodicIntervalEv
    libPocoFoundation.dll._ZNK4Poco5Timer7skippedEv
    libPocoFoundation.dll._ZNK4Poco5Token10tokenClassEv
    libPocoFoundation.dll._ZNK4Poco5Token6asCharEv
    libPocoFoundation.dll._ZNK4Poco5Token7asFloatEv
    libPocoFoundation.dll._ZNK4Poco5Token8asStringEv
    libPocoFoundation.dll._ZNK4Poco5Token9asIntegerEv
    libPocoFoundation.dll._ZNK4Poco6Logger10getChannelEv
    libPocoFoundation.dll._ZNK4Poco6Thread11getPriorityEv
    libPocoFoundation.dll._ZNK4Poco7Channel11getPropertyERKSs
    libPocoFoundation.dll._ZNK4Poco7MessageixERKSs
    libPocoFoundation.dll._ZNK4Poco8DateTime4weekEi
    libPocoFoundation.dll._ZNK4Poco8DateTime9dayOfWeekEv
    libPocoFoundation.dll._ZNK4Poco8DateTime9dayOfYearEv
    libPocoFoundation.dll._ZNK4Poco8DateTime9julianDayEv
    libPocoFoundation.dll._ZNK4Poco8DateTimemiERKNS_8TimespanE
    libPocoFoundation.dll._ZNK4Poco8DateTimemiERKS0_
    libPocoFoundation.dll._ZNK4Poco8DateTimeplERKNS_8TimespanE
    libPocoFoundation.dll._ZNK4Poco8EOFToken10tokenClassEv
    libPocoFoundation.dll._ZNK4Poco8FileImpl10copyToImplERKSs
    libPocoFoundation.dll._ZNK4Poco8FileImpl10existsImplEv
    libPocoFoundation.dll._ZNK4Poco8FileImpl10isFileImplEv
    libPocoFoundation.dll._ZNK4Poco8FileImpl10isLinkImplEv
    libPocoFoundation.dll._ZNK4Poco8FileImpl11canReadImplEv
    libPocoFoundation.dll._ZNK4Poco8FileImpl11createdImplEv
    libPocoFoundation.dll._ZNK4Poco8FileImpl11getSizeImplEv
    libPocoFoundation.dll._ZNK4Poco8FileImpl12canWriteImplEv
    libPocoFoundation.dll._ZNK4Poco8FileImpl12isDeviceImplEv
    libPocoFoundation.dll._ZNK4Poco8FileImpl12isHiddenImplEv
    libPocoFoundation.dll._ZNK4Poco8FileImpl14canExecuteImplEv
    libPocoFoundation.dll._ZNK4Poco8FileImpl15isDirectoryImplEv
    libPocoFoundation.dll._ZNK4Poco8FileImpl19getLastModifiedImplEv
    libPocoFoundation.dll._ZNK4Poco8PipeImpl10readHandleEv
    libPocoFoundation.dll._ZNK4Poco8PipeImpl11writeHandleEv
    libPocoFoundation.dll._ZNK4Poco8TimespanmiERKS0_
    libPocoFoundation.dll._ZNK4Poco8TimespanmiEx
    libPocoFoundation.dll._ZNK4Poco8TimespanplERKS0_
    libPocoFoundation.dll._ZNK4Poco8TimespanplEx
    libPocoFoundation.dll._ZNK4Poco9Exception11displayTextEv
    libPocoFoundation.dll._ZNK4Poco9Exception4nameEv
    libPocoFoundation.dll._ZNK4Poco9Exception4whatEv
    libPocoFoundation.dll._ZNK4Poco9Exception5cloneEv
    libPocoFoundation.dll._ZNK4Poco9Exception7rethrowEv
    libPocoFoundation.dll._ZNK4Poco9Exception9classNameEv
    libPocoFoundation.dll._ZNK4Poco9Formatter11getPropertyERKSs
    libPocoFoundation.dll._ZNK4Poco9MD4Engine12digestLengthEv
    libPocoFoundation.dll._ZNK4Poco9MD5Engine12digestLengthEv
    libPocoFoundation.dll._ZNK4Poco9Stopwatch7elapsedEv
    libPocoFoundation.dll._ZNK4Poco9Timestamp12toFileTimeNPERjS1_
    libPocoFoundation.dll._ZNKSt8_Rb_treeISsSt4pairIKSsN4Poco7AutoPtrINS2_7ChannelEEEESt10_Select1stIS6_ESt4lessISsESaIS6_EE4findERS1_
    libPocoFoundation.dll._ZNKSt8_Rb_treeISsSt4pairIKSsN4Poco7AutoPtrINS2_9FormatterEEEESt10_Select1stIS6_ESt4lessISsESaIS6_EE4findERS1_
    libPocoFoundation.dll._ZNKSt8_Rb_treeISsSt4pairIKSsN4Poco9SharedPtrINS2_12TextEncodingENS2_16ReferenceCounterENS2_13ReleasePolicyIS4_EEEEESt10_Select1stIS9_ENS2_19TextEncodingManager3ILTESaIS9_EE4findERS1_
    libPocoFoundation.dll._ZNKSt8_Rb_treeISsSt4pairIKSsPN4Poco16URIStreamFactoryEESt10_Select1stIS5_ESt4lessISsESaIS5_EE4findERS1_
    libPocoFoundation.dll._ZNKSt8_Rb_treeISsSt4pairIKSsPN4Poco20AbstractInstantiatorINS2_7ChannelEEEESt10_Select1stIS7_ESt4lessISsESaIS7_EE4findERS1_
    libPocoFoundation.dll._ZNKSt8_Rb_treeISsSt4pairIKSsPN4Poco20AbstractInstantiatorINS2_9FormatterEEEESt10_Select1stIS7_ESt4lessISsESaIS7_EE4findERS1_
    libPocoFoundation.dll._ZNSs12_S_constructIN9__gnu_cxx17__normal_iteratorIPKcSsEEEEPcT_S6_RKSaIcESt20forward_iterator_tag
    libPocoFoundation.dll._ZNSs12_S_constructIPcEES0_T_S1_RKSaIcESt20forward_iterator_tag
    libPocoFoundation.dll._ZNSt10_List_baseIN4Poco7AutoPtrINS0_4TaskEEESaIS3_EE8_M_clearEv
    libPocoFoundation.dll._ZNSt11_Deque_baseIN4Poco7AutoPtrINS0_12NotificationEEESaIS3_EE17_M_initialize_mapEj
    libPocoFoundation.dll._ZNSt11_Deque_baseIN4Poco7AutoPtrINS0_12NotificationEEESaIS3_EED2Ev
    libPocoFoundation.dll._ZNSt11_Deque_baseIPN4Poco17NotificationQueue8WaitInfoESaIS3_EE17_M_initialize_mapEj
    libPocoFoundation.dll._ZNSt11_Deque_baseIPN4Poco17NotificationQueue8WaitInfoESaIS3_EED2Ev
    libPocoFoundation.dll._ZNSt11_Deque_baseIPN4Poco25PriorityNotificationQueue8WaitInfoESaIS3_EE17_M_initialize_mapEj
    libPocoFoundation.dll._ZNSt11_Deque_baseIPN4Poco25PriorityNotificationQueue8WaitInfoESaIS3_EED2Ev
    libPocoFoundation.dll._ZNSt11_Deque_baseIPN4Poco5EventESaIS2_EE17_M_initialize_mapEj
    libPocoFoundation.dll._ZNSt11_Deque_baseIPN4Poco5EventESaIS2_EED2Ev
    libPocoFoundation.dll._ZNSt12_Destroy_auxILb0EE9__destroyIPN4Poco23NestedDiagnosticContext7ContextEEEvT_S6_
    libPocoFoundation.dll._ZNSt12_Destroy_auxILb0EE9__destroyIPN4Poco3AnyEEEvT_S5_
    libPocoFoundation.dll._ZNSt12_Destroy_auxILb0EE9__destroyIPN4Poco9SharedPtrINS2_16AbstractObserverENS2_16ReferenceCounterENS2_13ReleasePolicyIS4_EEEEEEvT_SA_
    libPocoFoundation.dll._ZNSt12_Destroy_auxILb0EE9__destroyIPSsEEvT_S3_
    libPocoFoundation.dll._ZNSt15basic_stringbufIcSt11char_traitsIcESaIcEED1Ev
    libPocoFoundation.dll._ZNSt4pairIKN4Poco9TimestampENS0_7AutoPtrINS0_12NotificationEEEED1Ev
    libPocoFoundation.dll._ZNSt4pairIKSsN4Poco7AutoPtrINS1_7ChannelEEEED1Ev
    libPocoFoundation.dll._ZNSt4pairIKSsN4Poco7AutoPtrINS1_9FormatterEEEED1Ev
    libPocoFoundation.dll._ZNSt4pairIKSsN4Poco9SharedPtrINS1_12TextEncodingENS1_16ReferenceCounterENS1_13ReleasePolicyIS3_EEEEED1Ev
    libPocoFoundation.dll._ZNSt4pairIKSsSsED1Ev
    libPocoFoundation.dll._ZNSt5dequeIN4Poco7AutoPtrINS0_12NotificationEEESaIS3_EE16_M_pop_front_auxEv
    libPocoFoundation.dll._ZNSt5dequeIN4Poco7AutoPtrINS0_12NotificationEEESaIS3_EE16_M_push_back_auxERKS3_
    libPocoFoundation.dll._ZNSt5dequeIN4Poco7AutoPtrINS0_12NotificationEEESaIS3_EE17_M_push_front_auxERKS3_
    libPocoFoundation.dll._ZNSt5dequeIN4Poco7AutoPtrINS0_12NotificationEEESaIS3_EE17_M_reallocate_mapEjb
    libPocoFoundation.dll._ZNSt5dequeIN4Poco7AutoPtrINS0_12NotificationEEESaIS3_EED1Ev
    libPocoFoundation.dll._ZNSt5dequeIPN4Poco17NotificationQueue8WaitInfoESaIS3_EE15_M_pop_back_auxEv
    libPocoFoundation.dll._ZNSt5dequeIPN4Poco17NotificationQueue8WaitInfoESaIS3_EE16_M_pop_front_auxEv
    libPocoFoundation.dll._ZNSt5dequeIPN4Poco17NotificationQueue8WaitInfoESaIS3_EE16_M_push_back_auxERKS3_
    libPocoFoundation.dll._ZNSt5dequeIPN4Poco17NotificationQueue8WaitInfoESaIS3_EE17_M_reallocate_mapEjb
    libPocoFoundation.dll._ZNSt5dequeIPN4Poco17NotificationQueue8WaitInfoESaIS3_EE5eraseESt15_Deque_iteratorIS3_RS3_PS3_E
    libPocoFoundation.dll._ZNSt5dequeIPN4Poco25PriorityNotificationQueue8WaitInfoESaIS3_EE15_M_pop_back_auxEv
    libPocoFoundation.dll._ZNSt5dequeIPN4Poco25PriorityNotificationQueue8WaitInfoESaIS3_EE16_M_pop_front_auxEv
    libPocoFoundation.dll._ZNSt5dequeIPN4Poco25PriorityNotificationQueue8WaitInfoESaIS3_EE16_M_push_back_auxERKS3_
    libPocoFoundation.dll._ZNSt5dequeIPN4Poco25PriorityNotificationQueue8WaitInfoESaIS3_EE17_M_reallocate_mapEjb
    libPocoFoundation.dll._ZNSt5dequeIPN4Poco25PriorityNotificationQueue8WaitInfoESaIS3_EE5eraseESt15_Deque_iteratorIS3_RS3_PS3_E
    libPocoFoundation.dll._ZNSt5dequeIPN4Poco5EventESaIS2_EE15_M_pop_back_auxEv
    libPocoFoundation.dll._ZNSt5dequeIPN4Poco5EventESaIS2_EE16_M_pop_front_auxEv
    libPocoFoundation.dll._ZNSt5dequeIPN4Poco5EventESaIS2_EE16_M_push_back_auxERKS2_
    libPocoFoundation.dll._ZNSt5dequeIPN4Poco5EventESaIS2_EE17_M_reallocate_mapEjb
    libPocoFoundation.dll._ZNSt5dequeIPN4Poco5EventESaIS2_EE5eraseESt15_Deque_iteratorIS2_RS2_PS2_E
    libPocoFoundation.dll._ZNSt6vectorIN4Poco15StreamTokenizer9TokenInfoESaIS2_EE13_M_insert_auxEN9__gnu_cxx17__normal_iteratorIPS2_S4_EERKS2_
    libPocoFoundation.dll._ZNSt6vectorIN4Poco15StreamTokenizer9TokenInfoESaIS2_EED1Ev
    libPocoFoundation.dll._ZNSt6vectorIN4Poco17RegularExpression5MatchESaIS2_EE13_M_insert_auxEN9__gnu_cxx17__normal_iteratorIPS2_S4_EERKS2_
    libPocoFoundation.dll._ZNSt6vectorIN4Poco17RegularExpression5MatchESaIS2_EE7reserveEj
    libPocoFoundation.dll._ZNSt6vectorIN4Poco17RegularExpression5MatchESaIS2_EED1Ev
    libPocoFoundation.dll._ZNSt6vectorIN4Poco23NestedDiagnosticContext7ContextESaIS2_EE13_M_insert_auxEN9__gnu_cxx17__normal_iteratorIPS2_S4_EERKS2_
    libPocoFoundation.dll._ZNSt6vectorIN4Poco23NestedDiagnosticContext7ContextESaIS2_EED1Ev
    libPocoFoundation.dll._ZNSt6vectorIN4Poco23NestedDiagnosticContext7ContextESaIS2_EEaSERKS4_
    libPocoFoundation.dll._ZNSt6vectorIN4Poco3AnyESaIS1_EE13_M_insert_auxEN9__gnu_cxx17__normal_iteratorIPS1_S3_EERKS1_
    libPocoFoundation.dll._ZNSt6vectorIN4Poco3AnyESaIS1_EED1Ev
    libPocoFoundation.dll._ZNSt6vectorIN4Poco4FileESaIS1_EE13_M_insert_auxEN9__gnu_cxx17__normal_iteratorIPS1_S3_EERKS1_
    libPocoFoundation.dll._ZNSt6vectorIN4Poco4FileESaIS1_EED1Ev
    libPocoFoundation.dll._ZNSt6vectorIN4Poco9SharedPtrINS0_16AbstractObserverENS0_16ReferenceCounterENS0_13ReleasePolicyIS2_EEEESaIS6_EE13_M_insert_auxEN9__gnu_cxx17__normal_iteratorIPS6_S8_EERKS6_
    libPocoFoundation.dll._ZNSt6vectorIN4Poco9SharedPtrINS0_16AbstractObserverENS0_16ReferenceCounterENS0_13ReleasePolicyIS2_EEEESaIS6_EED1Ev
    libPocoFoundation.dll._ZNSt6vectorIPN4Poco12PooledThreadESaIS2_EE13_M_insert_auxEN9__gnu_cxx17__normal_iteratorIPS2_S4_EERKS2_
    libPocoFoundation.dll._ZNSt6vectorIPN4Poco12PooledThreadESaIS2_EE15_M_range_insertIN9__gnu_cxx17__normal_iteratorIPS2_S4_EEEEvS9_T_SA_St20forward_iterator_tag
    libPocoFoundation.dll._ZNSt6vectorIPN4Poco12PooledThreadESaIS2_EE7reserveEj
    libPocoFoundation.dll._ZNSt6vectorIPN4Poco12PooledThreadESaIS2_EED1Ev
    libPocoFoundation.dll._ZNSt6vectorIPN4Poco7ChannelESaIS2_EE13_M_insert_auxEN9__gnu_cxx17__normal_iteratorIPS2_S4_EERKS2_
    libPocoFoundation.dll._ZNSt6vectorIPN4Poco7ChannelESaIS2_EED1Ev
    libPocoFoundation.dll._ZNSt6vectorIPSoSaIS0_EE13_M_insert_auxEN9__gnu_cxx17__normal_iteratorIPS0_S2_EERKS0_
    libPocoFoundation.dll._ZNSt6vectorIPSoSaIS0_EED1Ev
    libPocoFoundation.dll._ZNSt6vectorIPcSaIS0_EE13_M_insert_auxEN9__gnu_cxx17__normal_iteratorIPS0_S2_EERKS0_
    libPocoFoundation.dll._ZNSt6vectorIPcSaIS0_EE7reserveEj
    libPocoFoundation.dll._ZNSt6vectorIPcSaIS0_EED1Ev
    libPocoFoundation.dll._ZNSt6vectorISsSaISsEE13_M_insert_auxEN9__gnu_cxx17__normal_iteratorIPSsS1_EERKSs
    libPocoFoundation.dll._ZNSt6vectorISsSaISsEE15_M_range_insertIN9__gnu_cxx17__normal_iteratorIPKSsS1_EEEEvNS4_IPSsS1_EET_SA_St20forward_iterator_tag
    libPocoFoundation.dll._ZNSt6vectorISsSaISsEE7reserveEj
    libPocoFoundation.dll._ZNSt6vectorISsSaISsEED1Ev
    libPocoFoundation.dll._ZNSt6vectorISsSaISsEEaSERKS1_
    libPocoFoundation.dll._ZNSt6vectorIhSaIhEE15_M_range_insertIPhEEvN9__gnu_cxx17__normal_iteratorIS3_S1_EET_S7_St20forward_iterator_tag
    libPocoFoundation.dll._ZNSt6vectorIhSaIhEE7reserveEj
    libPocoFoundation.dll._ZNSt6vectorIhSaIhEED1Ev
    libPocoFoundation.dll._ZNSt8_Rb_treeIN4Poco9TimestampESt4pairIKS1_NS0_7AutoPtrINS0_12NotificationEEEESt10_Select1stIS7_ESt4lessIS1_ESaIS7_EE10_M_insert_EPKSt18_Rb_tree_node_baseSG_RKS7_
    libPocoFoundation.dll._ZNSt8_Rb_treeIN4Poco9TimestampESt4pairIKS1_NS0_7AutoPtrINS0_12NotificationEEEESt10_Select1stIS7_ESt4lessIS1_ESaIS7_EE15_M_insert_equalERKS7_
    libPocoFoundation.dll._ZNSt8_Rb_treeIN4Poco9TimestampESt4pairIKS1_NS0_7AutoPtrINS0_12NotificationEEEESt10_Select1stIS7_ESt4lessIS1_ESaIS7_EE8_M_eraseEPSt13_Rb_tree_nodeIS7_E
    libPocoFoundation.dll._ZNSt8_Rb_treeIN4Poco9TimestampESt4pairIKS1_NS0_7AutoPtrINS0_12NotificationEEEESt10_Select1stIS7_ESt4lessIS1_ESaIS7_EED1Ev
    libPocoFoundation.dll._ZNSt8_Rb_treeIPKvSt4pairIKS1_PN4Poco15TLSAbstractSlotEESt10_Select1stIS7_ESt4lessIS1_ESaIS7_EE10_M_insert_EPKSt18_Rb_tree_node_baseSG_RKS7_
    libPocoFoundation.dll._ZNSt8_Rb_treeIPKvSt4pairIKS1_PN4Poco15TLSAbstractSlotEESt10_Select1stIS7_ESt4lessIS1_ESaIS7_EE16_M_insert_uniqueERKS7_
    libPocoFoundation.dll._ZNSt8_Rb_treeIPKvSt4pairIKS1_PN4Poco15TLSAbstractSlotEESt10_Select1stIS7_ESt4lessIS1_ESaIS7_EE4findERS3_
    libPocoFoundation.dll._ZNSt8_Rb_treeIPKvSt4pairIKS1_PN4Poco15TLSAbstractSlotEESt10_Select1stIS7_ESt4lessIS1_ESaIS7_EE8_M_eraseEPSt13_Rb_tree_nodeIS7_E
    libPocoFoundation.dll._ZNSt8_Rb_treeIPKvSt4pairIKS1_PN4Poco15TLSAbstractSlotEESt10_Select1stIS7_ESt4lessIS1_ESaIS7_EED1Ev
    libPocoFoundation.dll._ZNSt8_Rb_treeISsSsSt9_IdentityISsESt4lessISsESaISsEE10_M_insert_EPKSt18_Rb_tree_node_baseS8_RKSs
    libPocoFoundation.dll._ZNSt8_Rb_treeISsSsSt9_IdentityISsESt4lessISsESaISsEE16_M_insert_uniqueERKSs
    libPocoFoundation.dll._ZNSt8_Rb_treeISsSsSt9_IdentityISsESt4lessISsESaISsEE8_M_eraseEPSt13_Rb_tree_nodeISsE
    libPocoFoundation.dll._ZNSt8_Rb_treeISsSsSt9_IdentityISsESt4lessISsESaISsEED1Ev
    libPocoFoundation.dll._ZNSt8_Rb_treeISsSt4pairIKSsN4Poco7AutoPtrINS2_7ChannelEEEESt10_Select1stIS6_ESt4lessISsESaIS6_EE10_M_insert_EPKSt18_Rb_tree_node_baseSF_RKS6_
    libPocoFoundation.dll._ZNSt8_Rb_treeISsSt4pairIKSsN4Poco7AutoPtrINS2_7ChannelEEEESt10_Select1stIS6_ESt4lessISsESaIS6_EE16_M_insert_uniqueERKS6_
    libPocoFoundation.dll._ZNSt8_Rb_treeISsSt4pairIKSsN4Poco7AutoPtrINS2_7ChannelEEEESt10_Select1stIS6_ESt4lessISsESaIS6_EE17_M_insert_unique_ESt23_Rb_tree_const_iteratorIS6_ERKS6_
    libPocoFoundation.dll._ZNSt8_Rb_treeISsSt4pairIKSsN4Poco7AutoPtrINS2_7ChannelEEEESt10_Select1stIS6_ESt4lessISsESaIS6_EE4findERS1_
    libPocoFoundation.dll._ZNSt8_Rb_treeISsSt4pairIKSsN4Poco7AutoPtrINS2_7ChannelEEEESt10_Select1stIS6_ESt4lessISsESaIS6_EE8_M_eraseEPSt13_Rb_tree_nodeIS6_E
    libPocoFoundation.dll._ZNSt8_Rb_treeISsSt4pairIKSsN4Poco7AutoPtrINS2_7ChannelEEEESt10_Select1stIS6_ESt4lessISsESaIS6_EED1Ev
    libPocoFoundation.dll._ZNSt8_Rb_treeISsSt4pairIKSsN4Poco7AutoPtrINS2_9FormatterEEEESt10_Select1stIS6_ESt4lessISsESaIS6_EE10_M_insert_EPKSt18_Rb_tree_node_baseSF_RKS6_
    libPocoFoundation.dll._ZNSt8_Rb_treeISsSt4pairIKSsN4Poco7AutoPtrINS2_9FormatterEEEESt10_Select1stIS6_ESt4lessISsESaIS6_EE16_M_insert_uniqueERKS6_
    libPocoFoundation.dll._ZNSt8_Rb_treeISsSt4pairIKSsN4Poco7AutoPtrINS2_9FormatterEEEESt10_Select1stIS6_ESt4lessISsESaIS6_EE17_M_insert_unique_ESt23_Rb_tree_const_iteratorIS6_ERKS6_
    libPocoFoundation.dll._ZNSt8_Rb_treeISsSt4pairIKSsN4Poco7AutoPtrINS2_9FormatterEEEESt10_Select1stIS6_ESt4lessISsESaIS6_EE4findERS1_
    libPocoFoundation.dll._ZNSt8_Rb_treeISsSt4pairIKSsN4Poco7AutoPtrINS2_9FormatterEEEESt10_Select1stIS6_ESt4lessISsESaIS6_EE8_M_eraseEPSt13_Rb_tree_nodeIS6_E
    libPocoFoundation.dll._ZNSt8_Rb_treeISsSt4pairIKSsN4Poco7AutoPtrINS2_9FormatterEEEESt10_Select1stIS6_ESt4lessISsESaIS6_EED1Ev
    libPocoFoundation.dll._ZNSt8_Rb_treeISsSt4pairIKSsN4Poco9SharedPtrINS2_12TextEncodingENS2_16ReferenceCounterENS2_13ReleasePolicyIS4_EEEEESt10_Select1stIS9_ENS2_19TextEncodingManager3ILTESaIS9_EE10_M_insert_EPKSt18_Rb_tree_node_baseSI_RKS9_
    libPocoFoundation.dll._ZNSt8_Rb_treeISsSt4pairIKSsN4Poco9SharedPtrINS2_12TextEncodingENS2_16ReferenceCounterENS2_13ReleasePolicyIS4_EEEEESt10_Select1stIS9_ENS2_19TextEncodingManager3ILTESaIS9_EE11equal_rangeERS1_
    libPocoFoundation.dll._ZNSt8_Rb_treeISsSt4pairIKSsN4Poco9SharedPtrINS2_12TextEncodingENS2_16ReferenceCounterENS2_13ReleasePolicyIS4_EEEEESt10_Select1stIS9_ENS2_19TextEncodingManager3ILTESaIS9_EE16_M_insert_uniqueERKS9_
    libPocoFoundation.dll._ZNSt8_Rb_treeISsSt4pairIKSsN4Poco9SharedPtrINS2_12TextEncodingENS2_16ReferenceCounterENS2_13ReleasePolicyIS4_EEEEESt10_Select1stIS9_ENS2_19TextEncodingManager3ILTESaIS9_EE17_M_insert_unique_ESt23_Rb_tree_const_iteratorIS9_ERKS9_
    libPocoFoundation.dll._ZNSt8_Rb_treeISsSt4pairIKSsN4Poco9SharedPtrINS2_12TextEncodingENS2_16ReferenceCounterENS2_13ReleasePolicyIS4_EEEEESt10_Select1stIS9_ENS2_19TextEncodingManager3ILTESaIS9_EE5eraseERS1_
    libPocoFoundation.dll._ZNSt8_Rb_treeISsSt4pairIKSsN4Poco9SharedPtrINS2_12TextEncodingENS2_16ReferenceCounterENS2_13ReleasePolicyIS4_EEEEESt10_Select1stIS9_ENS2_19TextEncodingManager3ILTESaIS9_EE5eraseESt17_Rb_tree_iteratorIS9_ESH_
    libPocoFoundation.dll._ZNSt8_Rb_treeISsSt4pairIKSsN4Poco9SharedPtrINS2_12TextEncodingENS2_16ReferenceCounterENS2_13ReleasePolicyIS4_EEEEESt10_Select1stIS9_ENS2_19TextEncodingManager3ILTESaIS9_EE8_M_eraseEPSt13_Rb_tree_nodeIS9_E
    libPocoFoundation.dll._ZNSt8_Rb_treeISsSt4pairIKSsN4Poco9SharedPtrINS2_12TextEncodingENS2_16ReferenceCounterENS2_13ReleasePolicyIS4_EEEEESt10_Select1stIS9_ENS2_19TextEncodingManager3ILTESaIS9_EED1Ev
    libPocoFoundation.dll._ZNSt8_Rb_treeISsSt4pairIKSsPN4Poco16URIStreamFactoryEESt10_Select1stIS5_ESt4lessISsESaIS5_EE10_M_insert_EPKSt18_Rb_tree_node_baseSE_RKS5_
    libPocoFoundation.dll._ZNSt8_Rb_treeISsSt4pairIKSsPN4Poco16URIStreamFactoryEESt10_Select1stIS5_ESt4lessISsESaIS5_EE16_M_insert_uniqueERKS5_
    libPocoFoundation.dll._ZNSt8_Rb_treeISsSt4pairIKSsPN4Poco16URIStreamFactoryEESt10_Select1stIS5_ESt4lessISsESaIS5_EE17_M_insert_unique_ESt23_Rb_tree_const_iteratorIS5_ERKS5_
    libPocoFoundation.dll._ZNSt8_Rb_treeISsSt4pairIKSsPN4Poco16URIStreamFactoryEESt10_Select1stIS5_ESt4lessISsESaIS5_EE4findERS1_
    libPocoFoundation.dll._ZNSt8_Rb_treeISsSt4pairIKSsPN4Poco16URIStreamFactoryEESt10_Select1stIS5_ESt4lessISsESaIS5_EE8_M_eraseEPSt13_Rb_tree_nodeIS5_E
    libPocoFoundation.dll._ZNSt8_Rb_treeISsSt4pairIKSsPN4Poco16URIStreamFactoryEESt10_Select1stIS5_ESt4lessISsESaIS5_EED1Ev
    libPocoFoundation.dll._ZNSt8_Rb_treeISsSt4pairIKSsPN4Poco20AbstractInstantiatorINS2_7ChannelEEEESt10_Select1stIS7_ESt4lessISsESaIS7_EE10_M_insert_EPKSt18_Rb_tree_node_baseSG_RKS7_
    libPocoFoundation.dll._ZNSt8_Rb_treeISsSt4pairIKSsPN4Poco20AbstractInstantiatorINS2_7ChannelEEEESt10_Select1stIS7_ESt4lessISsESaIS7_EE16_M_insert_uniqueERKS7_
    libPocoFoundation.dll._ZNSt8_Rb_treeISsSt4pairIKSsPN4Poco20AbstractInstantiatorINS2_7ChannelEEEESt10_Select1stIS7_ESt4lessISsESaIS7_EE17_M_insert_unique_ESt23_Rb_tree_const_iteratorIS7_ERKS7_
    libPocoFoundation.dll._ZNSt8_Rb_treeISsSt4pairIKSsPN4Poco20AbstractInstantiatorINS2_7ChannelEEEESt10_Select1stIS7_ESt4lessISsESaIS7_EE4findERS1_
    libPocoFoundation.dll._ZNSt8_Rb_treeISsSt4pairIKSsPN4Poco20AbstractInstantiatorINS2_7ChannelEEEESt10_Select1stIS7_ESt4lessISsESaIS7_EE8_M_eraseEPSt13_Rb_tree_nodeIS7_E
    libPocoFoundation.dll._ZNSt8_Rb_treeISsSt4pairIKSsPN4Poco20AbstractInstantiatorINS2_7ChannelEEEESt10_Select1stIS7_ESt4lessISsESaIS7_EED1Ev
    libPocoFoundation.dll._ZNSt8_Rb_treeISsSt4pairIKSsPN4Poco20AbstractInstantiatorINS2_9FormatterEEEESt10_Select1stIS7_ESt4lessISsESaIS7_EE10_M_insert_EPKSt18_Rb_tree_node_baseSG_RKS7_
    libPocoFoundation.dll._ZNSt8_Rb_treeISsSt4pairIKSsPN4Poco20AbstractInstantiatorINS2_9FormatterEEEESt10_Select1stIS7_ESt4lessISsESaIS7_EE16_M_insert_uniqueERKS7_
    libPocoFoundation.dll._ZNSt8_Rb_treeISsSt4pairIKSsPN4Poco20AbstractInstantiatorINS2_9FormatterEEEESt10_Select1stIS7_ESt4lessISsESaIS7_EE17_M_insert_unique_ESt23_Rb_tree_const_iteratorIS7_ERKS7_
    libPocoFoundation.dll._ZNSt8_Rb_treeISsSt4pairIKSsPN4Poco20AbstractInstantiatorINS2_9FormatterEEEESt10_Select1stIS7_ESt4lessISsESaIS7_EE4findERS1_
    libPocoFoundation.dll._ZNSt8_Rb_treeISsSt4pairIKSsPN4Poco20AbstractInstantiatorINS2_9FormatterEEEESt10_Select1stIS7_ESt4lessISsESaIS7_EE8_M_eraseEPSt13_Rb_tree_nodeIS7_E
    libPocoFoundation.dll._ZNSt8_Rb_treeISsSt4pairIKSsPN4Poco20AbstractInstantiatorINS2_9FormatterEEEESt10_Select1stIS7_ESt4lessISsESaIS7_EED1Ev
    libPocoFoundation.dll._ZNSt8_Rb_treeISsSt4pairIKSsPN4Poco6LoggerEESt10_Select1stIS5_ESt4lessISsESaIS5_EE10_M_insert_EPKSt18_Rb_tree_node_baseSE_RKS5_
    libPocoFoundation.dll._ZNSt8_Rb_treeISsSt4pairIKSsPN4Poco6LoggerEESt10_Select1stIS5_ESt4lessISsESaIS5_EE16_M_insert_uniqueERKS5_
    libPocoFoundation.dll._ZNSt8_Rb_treeISsSt4pairIKSsPN4Poco6LoggerEESt10_Select1stIS5_ESt4lessISsESaIS5_EE4findERS1_
    libPocoFoundation.dll._ZNSt8_Rb_treeISsSt4pairIKSsPN4Poco6LoggerEESt10_Select1stIS5_ESt4lessISsESaIS5_EE8_M_eraseEPSt13_Rb_tree_nodeIS5_E
    libPocoFoundation.dll._ZNSt8_Rb_treeISsSt4pairIKSsSsESt10_Select1stIS2_ESt4lessISsESaIS2_EE10_M_insert_EPKSt18_Rb_tree_node_baseSB_RKS2_
    libPocoFoundation.dll._ZNSt8_Rb_treeISsSt4pairIKSsSsESt10_Select1stIS2_ESt4lessISsESaIS2_EE16_M_insert_uniqueERKS2_
    libPocoFoundation.dll._ZNSt8_Rb_treeISsSt4pairIKSsSsESt10_Select1stIS2_ESt4lessISsESaIS2_EE17_M_insert_unique_ESt23_Rb_tree_const_iteratorIS2_ERKS2_
    libPocoFoundation.dll._ZNSt8_Rb_treeISsSt4pairIKSsSsESt10_Select1stIS2_ESt4lessISsESaIS2_EE7_M_copyEPKSt13_Rb_tree_nodeIS2_EPSA_
    libPocoFoundation.dll._ZNSt8_Rb_treeISsSt4pairIKSsSsESt10_Select1stIS2_ESt4lessISsESaIS2_EE8_M_eraseEPSt13_Rb_tree_nodeIS2_E
    libPocoFoundation.dll._ZNSt8_Rb_treeIiSt4pairIKiN4Poco7AutoPtrINS2_12NotificationEEEESt10_Select1stIS6_ESt4lessIiESaIS6_EE10_M_insert_EPKSt18_Rb_tree_node_baseSF_RKS6_
    libPocoFoundation.dll._ZNSt8_Rb_treeIiSt4pairIKiN4Poco7AutoPtrINS2_12NotificationEEEESt10_Select1stIS6_ESt4lessIiESaIS6_EE15_M_insert_equalERKS6_
    libPocoFoundation.dll._ZNSt8_Rb_treeIiSt4pairIKiN4Poco7AutoPtrINS2_12NotificationEEEESt10_Select1stIS6_ESt4lessIiESaIS6_EE8_M_eraseEPSt13_Rb_tree_nodeIS6_E
    libPocoFoundation.dll._ZNSt8_Rb_treeIiSt4pairIKiN4Poco7AutoPtrINS2_12NotificationEEEESt10_Select1stIS6_ESt4lessIiESaIS6_EED1Ev
    libPocoFoundation.dll._ZSt10scientificRSt8ios_base
    libPocoFoundation.dll._ZSt13copy_backwardIPN4Poco17NotificationQueue8WaitInfoEESt15_Deque_iteratorIT_RS5_PS5_ES4_IS5_RKS5_PS9_ESC_S8_
    libPocoFoundation.dll._ZSt13copy_backwardIPN4Poco25PriorityNotificationQueue8WaitInfoEESt15_Deque_iteratorIT_RS5_PS5_ES4_IS5_RKS5_PS9_ESC_S8_
    libPocoFoundation.dll._ZSt13copy_backwardIPN4Poco5EventEESt15_Deque_iteratorIT_RS4_PS4_ES3_IS4_RKS4_PS8_ESB_S7_
    libPocoFoundation.dll._ZSt3decRSt8ios_base
    libPocoFoundation.dll._ZSt3hexRSt8ios_base
    libPocoFoundation.dll._ZSt3octRSt8ios_base
    libPocoFoundation.dll._ZSt4copyIPN4Poco17NotificationQueue8WaitInfoEESt15_Deque_iteratorIT_RS5_PS5_ES4_IS5_RKS5_PS9_ESC_S8_
    libPocoFoundation.dll._ZSt4copyIPN4Poco25PriorityNotificationQueue8WaitInfoEESt15_Deque_iteratorIT_RS5_PS5_ES4_IS5_RKS5_PS9_ESC_S8_
    libPocoFoundation.dll._ZSt4copyIPN4Poco5EventEESt15_Deque_iteratorIT_RS4_PS4_ES3_IS4_RKS4_PS8_ESB_S7_
    libPocoFoundation.dll._ZSt5fixedRSt8ios_base
    libPocoFoundation.dll._ZSt9showpointRSt8ios_base
    libPocoFoundation.dll._ZSt9uppercaseRSt8ios_base
    libPocoFoundation.dll._ZSteqIcSt11char_traitsIcESaIcEEbRKSbIT_T0_T1_EPKS3_
    libPocoFoundation.dll._ZStneIcSt11char_traitsIcESaIcEEbRKSbIT_T0_T1_EPKS3_
    libPocoFoundation.dll._ZStplIcSt11char_traitsIcESaIcEESbIT_T0_T1_ERKS6_S8_
    libPocoFoundation.dll._ZTCN4Poco10FileStreamE0_NS_7FileIOSE
    libPocoFoundation.dll._ZTCN4Poco10FileStreamE76_Sd
    libPocoFoundation.dll._ZTCN4Poco10FileStreamE76_Si
    libPocoFoundation.dll._ZTCN4Poco10FileStreamE84_So
    libPocoFoundation.dll._ZTCN4Poco13Base64DecoderE0_NS_16Base64DecoderIOSE
    libPocoFoundation.dll._ZTCN4Poco13Base64DecoderE56_Si
    libPocoFoundation.dll._ZTCN4Poco13Base64EncoderE0_NS_16Base64EncoderIOSE
    libPocoFoundation.dll._ZTCN4Poco13Base64EncoderE60_So
    libPocoFoundation.dll._ZTCN4Poco14TeeInputStreamE0_NS_6TeeIOSE
    libPocoFoundation.dll._ZTCN4Poco14TeeInputStreamE60_Si
    libPocoFoundation.dll._ZTCN4Poco15FileInputStreamE0_NS_7FileIOSE
    libPocoFoundation.dll._ZTCN4Poco15FileInputStreamE76_Si
    libPocoFoundation.dll._ZTCN4Poco15NullInputStreamE0_NS_7NullIOSE
    libPocoFoundation.dll._ZTCN4Poco15NullInputStreamE44_Si
    libPocoFoundation.dll._ZTCN4Poco15PipeInputStreamE0_NS_7PipeIOSE
    libPocoFoundation.dll._ZTCN4Poco15PipeInputStreamE52_Si
    libPocoFoundation.dll._ZTCN4Poco15TeeOutputStreamE0_NS_6TeeIOSE
    libPocoFoundation.dll._ZTCN4Poco15TeeOutputStreamE60_So
    libPocoFoundation.dll._ZTCN4Poco16FileOutputStreamE0_NS_7FileIOSE
    libPocoFoundation.dll._ZTCN4Poco16FileOutputStreamE76_So
    libPocoFoundation.dll._ZTCN4Poco16HexBinaryDecoderE0_NS_19HexBinaryDecoderIOSE
    libPocoFoundation.dll._ZTCN4Poco16HexBinaryDecoderE48_Si
    libPocoFoundation.dll._ZTCN4Poco16HexBinaryEncoderE0_NS_19HexBinaryEncoderIOSE
    libPocoFoundation.dll._ZTCN4Poco16HexBinaryEncoderE60_So
    libPocoFoundation.dll._ZTCN4Poco16NullOutputStreamE0_NS_7NullIOSE
    libPocoFoundation.dll._ZTCN4Poco16NullOutputStreamE44_So
    libPocoFoundation.dll._ZTCN4Poco16PipeOutputStreamE0_NS_7PipeIOSE
    libPocoFoundation.dll._ZTCN4Poco16PipeOutputStreamE52_So
    libPocoFoundation.dll._ZTCN4Poco17DigestInputStreamE0_NS_9DigestIOSE
    libPocoFoundation.dll._ZTCN4Poco17DigestInputStreamE60_Si
    libPocoFoundation.dll._ZTCN4Poco17MemoryInputStreamE0_NS_9MemoryIOSE
    libPocoFoundation.dll._ZTCN4Poco17MemoryInputStreamE44_Si
    libPocoFoundation.dll._ZTCN4Poco17RandomInputStreamE0_NS_9RandomIOSE
    libPocoFoundation.dll._ZTCN4Poco17RandomInputStreamE48_Si
    libPocoFoundation.dll._ZTCN4Poco18DigestOutputStreamE0_NS_9DigestIOSE
    libPocoFoundation.dll._ZTCN4Poco18DigestOutputStreamE60_So
    libPocoFoundation.dll._ZTCN4Poco18MemoryOutputStreamE0_NS_9MemoryIOSE
    libPocoFoundation.dll._ZTCN4Poco18MemoryOutputStreamE44_So
    libPocoFoundation.dll._ZTCN4Poco19CountingInputStreamE0_NS_11CountingIOSE
    libPocoFoundation.dll._ZTCN4Poco19CountingInputStreamE64_Si
    libPocoFoundation.dll._ZTCN4Poco20CountingOutputStreamE0_NS_11CountingIOSE
    libPocoFoundation.dll._ZTCN4Poco20CountingOutputStreamE64_So
    libPocoFoundation.dll._ZTCN4Poco20DeflatingInputStreamE0_NS_12DeflatingIOSE
    libPocoFoundation.dll._ZTCN4Poco20DeflatingInputStreamE120_Si
    libPocoFoundation.dll._ZTCN4Poco20InflatingInputStreamE0_NS_12InflatingIOSE
    libPocoFoundation.dll._ZTCN4Poco20InflatingInputStreamE120_Si
    libPocoFoundation.dll._ZTCN4Poco20InputStreamConverterE0_NS_18StreamConverterIOSE
    libPocoFoundation.dll._ZTCN4Poco20InputStreamConverterE84_Si
    libPocoFoundation.dll._ZTCN4Poco21DeflatingOutputStreamE0_NS_12DeflatingIOSE
    libPocoFoundation.dll._ZTCN4Poco21DeflatingOutputStreamE120_So
    libPocoFoundation.dll._ZTCN4Poco21InflatingOutputStreamE0_NS_12InflatingIOSE
    libPocoFoundation.dll._ZTCN4Poco21InflatingOutputStreamE120_So
    libPocoFoundation.dll._ZTCN4Poco21OutputStreamConverterE0_NS_18StreamConverterIOSE
    libPocoFoundation.dll._ZTCN4Poco21OutputStreamConverterE84_So
    libPocoFoundation.dll._ZTCN4Poco24InputLineEndingConverterE0_NS_22LineEndingConverterIOSE
    libPocoFoundation.dll._ZTCN4Poco24InputLineEndingConverterE64_Si
    libPocoFoundation.dll._ZTCN4Poco25OutputLineEndingConverterE0_NS_22LineEndingConverterIOSE
    libPocoFoundation.dll._ZTCN4Poco25OutputLineEndingConverterE64_So
    libPocoFoundation.dll._ZTCN4Poco9LogStreamE0_NS_6LogIOSE
    libPocoFoundation.dll._ZTCN4Poco9LogStreamE56_So
    libPocoFoundation.dll._ZTIN4Poco10FileStreamE
    libPocoFoundation.dll._ZTIN4Poco10SHA1EngineE
    libPocoFoundation.dll._ZTIN4Poco11CountingIOSE
    libPocoFoundation.dll._ZTIN4Poco11FileChannelE
    libPocoFoundation.dll._ZTIN4Poco11IOExceptionE
    libPocoFoundation.dll._ZTIN4Poco11NullChannelE
    libPocoFoundation.dll._ZTIN4Poco12AsyncChannelE
    libPocoFoundation.dll._ZTIN4Poco12ConfigurableE
    libPocoFoundation.dll._ZTIN4Poco12DeflatingIOSE
    libPocoFoundation.dll._ZTIN4Poco12DigestEngineE
    libPocoFoundation.dll._ZTIN4Poco12ErrorHandlerE
    libPocoFoundation.dll._ZTIN4Poco12InflatingIOSE
    libPocoFoundation.dll._ZTIN4Poco12InstantiatorINS_11FileChannelENS_7ChannelEEE
    libPocoFoundation.dll._ZTIN4Poco12InstantiatorINS_11NullChannelENS_7ChannelEEE
    libPocoFoundation.dll._ZTIN4Poco12InstantiatorINS_12AsyncChannelENS_7ChannelEEE
    libPocoFoundation.dll._ZTIN4Poco12InstantiatorINS_15EventLogChannelENS_7ChannelEEE
    libPocoFoundation.dll._ZTIN4Poco12InstantiatorINS_15SplitterChannelENS_7ChannelEEE
    libPocoFoundation.dll._ZTIN4Poco12InstantiatorINS_16PatternFormatterENS_9FormatterEEE
    libPocoFoundation.dll._ZTIN4Poco12InstantiatorINS_17FormattingChannelENS_7ChannelEEE
    libPocoFoundation.dll._ZTIN4Poco12InstantiatorINS_21WindowsConsoleChannelENS_7ChannelEEE
    libPocoFoundation.dll._ZTIN4Poco12InvalidTokenE
    libPocoFoundation.dll._ZTIN4Poco12LogStreamBufE
    libPocoFoundation.dll._ZTIN4Poco12ManifestBaseE
    libPocoFoundation.dll._ZTIN4Poco12NotificationE
    libPocoFoundation.dll._ZTIN4Poco12PooledThreadE
    libPocoFoundation.dll._ZTIN4Poco12TeeStreamBufE
    libPocoFoundation.dll._ZTIN4Poco12TextEncodingE
    libPocoFoundation.dll._ZTIN4Poco12ThreadTargetE
    libPocoFoundation.dll._ZTIN4Poco12UTF8EncodingE
    libPocoFoundation.dll._ZTIN4Poco13ASCIIEncodingE
    libPocoFoundation.dll._ZTIN4Poco13Base64DecoderE
    libPocoFoundation.dll._ZTIN4Poco13Base64EncoderE
    libPocoFoundation.dll._ZTIN4Poco13DataExceptionE
    libPocoFoundation.dll._ZTIN4Poco13FileExceptionE
    libPocoFoundation.dll._ZTIN4Poco13FileStreamBufE
    libPocoFoundation.dll._ZTIN4Poco13HashStatisticE
    libPocoFoundation.dll._ZTIN4Poco13NullStreamBufE
    libPocoFoundation.dll._ZTIN4Poco13PipeStreamBufE
    libPocoFoundation.dll._ZTIN4Poco13PurgeStrategyE
    libPocoFoundation.dll._ZTIN4Poco13SharedLibraryE
    libPocoFoundation.dll._ZTIN4Poco13StreamChannelE
    libPocoFoundation.dll._ZTIN4Poco13TemporaryFileE
    libPocoFoundation.dll._ZTIN4Poco13UTF16EncodingE
    libPocoFoundation.dll._ZTIN4Poco14ActiveRunnableINS_4VoidESsNS_17ArchiveCompressorEEE
    libPocoFoundation.dll._ZTIN4Poco14ConsoleChannelE
    libPocoFoundation.dll._ZTIN4Poco14Latin1EncodingE
    libPocoFoundation.dll._ZTIN4Poco14Latin9EncodingE
    libPocoFoundation.dll._ZTIN4Poco14LogicExceptionE
    libPocoFoundation.dll._ZTIN4Poco14RangeExceptionE
    libPocoFoundation.dll._ZTIN4Poco14RotateStrategyE
    libPocoFoundation.dll._ZTIN4Poco14TeeInputStreamE
    libPocoFoundation.dll._ZTIN4Poco14URIRedirectionE
    libPocoFoundation.dll._ZTIN4Poco15ArchiveStrategyE
    libPocoFoundation.dll._ZTIN4Poco15EventLogChannelE
    libPocoFoundation.dll._ZTIN4Poco15ExistsExceptionE
    libPocoFoundation.dll._ZTIN4Poco15FileInputStreamE
    libPocoFoundation.dll._ZTIN4Poco15NullInputStreamE
    libPocoFoundation.dll._ZTIN4Poco15PipeInputStreamE
    libPocoFoundation.dll._ZTIN4Poco15SignalExceptionE
    libPocoFoundation.dll._ZTIN4Poco15SplitterChannelE
    libPocoFoundation.dll._ZTIN4Poco15StreamTokenizerE
    libPocoFoundation.dll._ZTIN4Poco15SyntaxExceptionE
    libPocoFoundation.dll._ZTIN4Poco15SystemExceptionE
    libPocoFoundation.dll._ZTIN4Poco15TLSAbstractSlotE
    libPocoFoundation.dll._ZTIN4Poco15TeeOutputStreamE
    libPocoFoundation.dll._ZTIN4Poco15WhitespaceTokenE
    libPocoFoundation.dll._ZTIN4Poco16AbstractObserverE
    libPocoFoundation.dll._ZTIN4Poco16ActiveDispatcherE
    libPocoFoundation.dll._ZTIN4Poco16BadCastExceptionE
    libPocoFoundation.dll._ZTIN4Poco16Base64DecoderBufE
    libPocoFoundation.dll._ZTIN4Poco16Base64DecoderIOSE
    libPocoFoundation.dll._ZTIN4Poco16Base64EncoderBufE
    libPocoFoundation.dll._ZTIN4Poco16Base64EncoderIOSE
    libPocoFoundation.dll._ZTIN4Poco16DynamicAnyHolderE
    libPocoFoundation.dll._ZTIN4Poco16FileOutputStreamE
    libPocoFoundation.dll._ZTIN4Poco16HexBinaryDecoderE
    libPocoFoundation.dll._ZTIN4Poco16HexBinaryEncoderE
    libPocoFoundation.dll._ZTIN4Poco16NullOutputStreamE
    libPocoFoundation.dll._ZTIN4Poco16PatternFormatterE
    libPocoFoundation.dll._ZTIN4Poco16PipeOutputStreamE
    libPocoFoundation.dll._ZTIN4Poco16RefCountedObjectE
    libPocoFoundation.dll._ZTIN4Poco16RuntimeExceptionE
    libPocoFoundation.dll._ZTIN4Poco16SharedMemoryImplE
    libPocoFoundation.dll._ZTIN4Poco16TaskNotificationE
    libPocoFoundation.dll._ZTIN4Poco16TimeoutExceptionE
    libPocoFoundation.dll._ZTIN4Poco16URIStreamFactoryE
    libPocoFoundation.dll._ZTIN4Poco17ArchiveCompressorE
    libPocoFoundation.dll._ZTIN4Poco17BugcheckExceptionE
    libPocoFoundation.dll._ZTIN4Poco17CountingStreamBufE
    libPocoFoundation.dll._ZTIN4Poco17DigestInputStreamE
    libPocoFoundation.dll._ZTIN4Poco17FileStreamFactoryE
    libPocoFoundation.dll._ZTIN4Poco17FormattingChannelE
    libPocoFoundation.dll._ZTIN4Poco17MemoryInputStreamE
    libPocoFoundation.dll._ZTIN4Poco17NotFoundExceptionE
    libPocoFoundation.dll._ZTIN4Poco17OpenFileExceptionE
    libPocoFoundation.dll._ZTIN4Poco17ProcessHandleImplE
    libPocoFoundation.dll._ZTIN4Poco17ProtocolExceptionE
    libPocoFoundation.dll._ZTIN4Poco17RandomInputStreamE
    libPocoFoundation.dll._ZTIN4Poco17ReadFileExceptionE
    libPocoFoundation.dll._ZTIN4Poco17SharedLibraryImplE
    libPocoFoundation.dll._ZTIN4Poco17SimpleFileChannelE
    libPocoFoundation.dll._ZTIN4Poco18ActiveResultHolderINS_4VoidEEE
    libPocoFoundation.dll._ZTIN4Poco18ActiveRunnableBaseE
    libPocoFoundation.dll._ZTIN4Poco18DeflatingStreamBufE
    libPocoFoundation.dll._ZTIN4Poco18DigestOutputStreamE
    libPocoFoundation.dll._ZTIN4Poco18InflatingStreamBufE
    libPocoFoundation.dll._ZTIN4Poco18MemoryOutputStreamE
    libPocoFoundation.dll._ZTIN4Poco18NullValueExceptionE
    libPocoFoundation.dll._ZTIN4Poco18PurgeByAgeStrategyE
    libPocoFoundation.dll._ZTIN4Poco18StreamConverterBufE
    libPocoFoundation.dll._ZTIN4Poco18StreamConverterIOSE
    libPocoFoundation.dll._ZTIN4Poco18SynchronizedObjectE
    libPocoFoundation.dll._ZTIN4Poco18UnhandledExceptionE
    libPocoFoundation.dll._ZTIN4Poco18WriteFileExceptionE
    libPocoFoundation.dll._ZTIN4Poco19CountingInputStreamE
    libPocoFoundation.dll._ZTIN4Poco19CreateFileExceptionE
    libPocoFoundation.dll._ZTIN4Poco19DataFormatExceptionE
    libPocoFoundation.dll._ZTIN4Poco19FileExistsExceptionE
    libPocoFoundation.dll._ZTIN4Poco19HexBinaryDecoderBufE
    libPocoFoundation.dll._ZTIN4Poco19HexBinaryDecoderIOSE
    libPocoFoundation.dll._ZTIN4Poco19HexBinaryEncoderBufE
    libPocoFoundation.dll._ZTIN4Poco19HexBinaryEncoderIOSE
    libPocoFoundation.dll._ZTIN4Poco19MessageNotificationE
    libPocoFoundation.dll._ZTIN4Poco19PathSyntaxExceptionE
    libPocoFoundation.dll._ZTIN4Poco19Windows1252EncodingE
    libPocoFoundation.dll._ZTIN4Poco20AbstractInstantiatorINS_7ChannelEEE
    libPocoFoundation.dll._ZTIN4Poco20AbstractInstantiatorINS_9FormatterEEE
    libPocoFoundation.dll._ZTIN4Poco20ApplicationExceptionE
    libPocoFoundation.dll._ZTIN4Poco20BasicMemoryStreamBufIcSt11char_traitsIcEEE
    libPocoFoundation.dll._ZTIN4Poco20CountingOutputStreamE
    libPocoFoundation.dll._ZTIN4Poco20DeflatingInputStreamE
    libPocoFoundation.dll._ZTIN4Poco20DynamicAnyHolderImplISsEE
    libPocoFoundation.dll._ZTIN4Poco20DynamicAnyHolderImplIdEE
    libPocoFoundation.dll._ZTIN4Poco20DynamicAnyHolderImplIiEE
    libPocoFoundation.dll._ZTIN4Poco20DynamicAnyHolderImplIxEE
    libPocoFoundation.dll._ZTIN4Poco20DynamicAnyHolderImplIyEE
    libPocoFoundation.dll._ZTIN4Poco20InflatingInputStreamE
    libPocoFoundation.dll._ZTIN4Poco20InputStreamConverterE
    libPocoFoundation.dll._ZTIN4Poco20LibraryLoadExceptionE
    libPocoFoundation.dll._ZTIN4Poco20NullPointerExceptionE
    libPocoFoundation.dll._ZTIN4Poco20OutOfMemoryExceptionE
    libPocoFoundation.dll._ZTIN4Poco20PurgeByCountStrategyE
    libPocoFoundation.dll._ZTIN4Poco20RotateAtTimeStrategyINS_13LocalDateTimeEEE
    libPocoFoundation.dll._ZTIN4Poco20RotateAtTimeStrategyINS_8DateTimeEEE
    libPocoFoundation.dll._ZTIN4Poco20RotateBySizeStrategyE
    libPocoFoundation.dll._ZTIN4Poco21AbstractTimerCallbackE
    libPocoFoundation.dll._ZTIN4Poco21DeflatingOutputStreamE
    libPocoFoundation.dll._ZTIN4Poco21FileNotFoundExceptionE
    libPocoFoundation.dll._ZTIN4Poco21FileReadOnlyExceptionE
    libPocoFoundation.dll._ZTIN4Poco21IllegalStateExceptionE
    libPocoFoundation.dll._ZTIN4Poco21InflatingOutputStreamE
    libPocoFoundation.dll._ZTIN4Poco21NoPermissionExceptionE
    libPocoFoundation.dll._ZTIN4Poco21OutputStreamConverterE
    libPocoFoundation.dll._ZTIN4Poco21PathNotFoundExceptionE
    libPocoFoundation.dll._ZTIN4Poco21PoolOverflowExceptionE
    libPocoFoundation.dll._ZTIN4Poco21WindowsConsoleChannelE
    libPocoFoundation.dll._ZTIN4Poco22BasicBufferedStreamBufIcSt11char_traitsIcENS_15BufferAllocatorIcEEEE
    libPocoFoundation.dll._ZTIN4Poco22InvalidAccessExceptionE
    libPocoFoundation.dll._ZTIN4Poco22LineEndingConverterIOSE
    libPocoFoundation.dll._ZTIN4Poco22TaskFailedNotificationE
    libPocoFoundation.dll._ZTIN4Poco23ArchiveByNumberStrategyE
    libPocoFoundation.dll._ZTIN4Poco23NotImplementedExceptionE
    libPocoFoundation.dll._ZTIN4Poco23TaskStartedNotificationE
    libPocoFoundation.dll._ZTIN4Poco24BasicUnbufferedStreamBufIcSt11char_traitsIcEEE
    libPocoFoundation.dll._ZTIN4Poco24InputLineEndingConverterE
    libPocoFoundation.dll._ZTIN4Poco24InvalidArgumentExceptionE
    libPocoFoundation.dll._ZTIN4Poco24RotateByIntervalStrategyE
    libPocoFoundation.dll._ZTIN4Poco24TaskFinishedNotificationE
    libPocoFoundation.dll._ZTIN4Poco24TaskProgressNotificationE
    libPocoFoundation.dll._ZTIN4Poco25FileAccessDeniedExceptionE
    libPocoFoundation.dll._ZTIN4Poco25OutputLineEndingConverterE
    libPocoFoundation.dll._ZTIN4Poco25TaskCancelledNotificationE
    libPocoFoundation.dll._ZTIN4Poco25UnknownURISchemeExceptionE
    libPocoFoundation.dll._ZTIN4Poco26ArchiveByTimestampStrategyINS_13LocalDateTimeEEE
    libPocoFoundation.dll._ZTIN4Poco26ArchiveByTimestampStrategyINS_8DateTimeEEE
    libPocoFoundation.dll._ZTIN4Poco26CircularReferenceExceptionE
    libPocoFoundation.dll._ZTIN4Poco26NoThreadAvailableExceptionE
    libPocoFoundation.dll._ZTIN4Poco26RegularExpressionExceptionE
    libPocoFoundation.dll._ZTIN4Poco27AssertionViolationExceptionE
    libPocoFoundation.dll._ZTIN4Poco28LineEndingConverterStreamBufE
    libPocoFoundation.dll._ZTIN4Poco29LibraryAlreadyLoadedExceptionE
    libPocoFoundation.dll._ZTIN4Poco29PropertyNotSupportedExceptionE
    libPocoFoundation.dll._ZTIN4Poco35BasicBufferedBidirectionalStreamBufIcSt11char_traitsIcENS_15BufferAllocatorIcEEEE
    libPocoFoundation.dll._ZTIN4Poco4FileE
    libPocoFoundation.dll._ZTIN4Poco4TaskE
    libPocoFoundation.dll._ZTIN4Poco5TimerE
    libPocoFoundation.dll._ZTIN4Poco5TokenE
    libPocoFoundation.dll._ZTIN4Poco6LogIOSE
    libPocoFoundation.dll._ZTIN4Poco6LoggerE
    libPocoFoundation.dll._ZTIN4Poco6TeeIOSE
    libPocoFoundation.dll._ZTIN4Poco7ChannelE
    libPocoFoundation.dll._ZTIN4Poco7FileIOSE
    libPocoFoundation.dll._ZTIN4Poco7NullIOSE
    libPocoFoundation.dll._ZTIN4Poco7PipeIOSE
    libPocoFoundation.dll._ZTIN4Poco7TLSSlotINS_23NestedDiagnosticContextEEE
    libPocoFoundation.dll._ZTIN4Poco8EOFTokenE
    libPocoFoundation.dll._ZTIN4Poco8FileImplE
    libPocoFoundation.dll._ZTIN4Poco8PipeImplE
    libPocoFoundation.dll._ZTIN4Poco8RunnableE
    libPocoFoundation.dll._ZTIN4Poco9DigestBufE
    libPocoFoundation.dll._ZTIN4Poco9DigestIOSE
    libPocoFoundation.dll._ZTIN4Poco9EventArgsE
    libPocoFoundation.dll._ZTIN4Poco9ExceptionE
    libPocoFoundation.dll._ZTIN4Poco9FormatterE
    libPocoFoundation.dll._ZTIN4Poco9LogStreamE
    libPocoFoundation.dll._ZTIN4Poco9MD4EngineE
    libPocoFoundation.dll._ZTIN4Poco9MD5EngineE
    libPocoFoundation.dll._ZTIN4Poco9MemoryIOSE
    libPocoFoundation.dll._ZTIN4Poco9RandomBufE
    libPocoFoundation.dll._ZTIN4Poco9RandomIOSE
    libPocoFoundation.dll._ZTISs
    libPocoFoundation.dll._ZTISt9exception
    libPocoFoundation.dll._ZTSN4Poco10FileStreamE
    libPocoFoundation.dll._ZTSN4Poco10SHA1EngineE
    libPocoFoundation.dll._ZTSN4Poco11CountingIOSE
    libPocoFoundation.dll._ZTSN4Poco11FileChannelE
    libPocoFoundation.dll._ZTSN4Poco11IOExceptionE
    libPocoFoundation.dll._ZTSN4Poco11NullChannelE
    libPocoFoundation.dll._ZTSN4Poco12AsyncChannelE
    libPocoFoundation.dll._ZTSN4Poco12ConfigurableE
    libPocoFoundation.dll._ZTSN4Poco12DeflatingIOSE
    libPocoFoundation.dll._ZTSN4Poco12DigestEngineE
    libPocoFoundation.dll._ZTSN4Poco12ErrorHandlerE
    libPocoFoundation.dll._ZTSN4Poco12InflatingIOSE
    libPocoFoundation.dll._ZTSN4Poco12InstantiatorINS_11FileChannelENS_7ChannelEEE
    libPocoFoundation.dll._ZTSN4Poco12InstantiatorINS_11NullChannelENS_7ChannelEEE
    libPocoFoundation.dll._ZTSN4Poco12InstantiatorINS_12AsyncChannelENS_7ChannelEEE
    libPocoFoundation.dll._ZTSN4Poco12InstantiatorINS_15EventLogChannelENS_7ChannelEEE
    libPocoFoundation.dll._ZTSN4Poco12InstantiatorINS_15SplitterChannelENS_7ChannelEEE
    libPocoFoundation.dll._ZTSN4Poco12InstantiatorINS_16PatternFormatterENS_9FormatterEEE
    libPocoFoundation.dll._ZTSN4Poco12InstantiatorINS_17FormattingChannelENS_7ChannelEEE
    libPocoFoundation.dll._ZTSN4Poco12InstantiatorINS_21WindowsConsoleChannelENS_7ChannelEEE
    libPocoFoundation.dll._ZTSN4Poco12InvalidTokenE
    libPocoFoundation.dll._ZTSN4Poco12LogStreamBufE
    libPocoFoundation.dll._ZTSN4Poco12ManifestBaseE
    libPocoFoundation.dll._ZTSN4Poco12NotificationE
    libPocoFoundation.dll._ZTSN4Poco12PooledThreadE
    libPocoFoundation.dll._ZTSN4Poco12TeeStreamBufE
    libPocoFoundation.dll._ZTSN4Poco12TextEncodingE
    libPocoFoundation.dll._ZTSN4Poco12ThreadTargetE
    libPocoFoundation.dll._ZTSN4Poco12UTF8EncodingE
    libPocoFoundation.dll._ZTSN4Poco13ASCIIEncodingE
    libPocoFoundation.dll._ZTSN4Poco13Base64DecoderE
    libPocoFoundation.dll._ZTSN4Poco13Base64EncoderE
    libPocoFoundation.dll._ZTSN4Poco13DataExceptionE
    libPocoFoundation.dll._ZTSN4Poco13FileExceptionE
    libPocoFoundation.dll._ZTSN4Poco13FileStreamBufE
    libPocoFoundation.dll._ZTSN4Poco13HashStatisticE
    libPocoFoundation.dll._ZTSN4Poco13NullStreamBufE
    libPocoFoundation.dll._ZTSN4Poco13PipeStreamBufE
    libPocoFoundation.dll._ZTSN4Poco13PurgeStrategyE
    libPocoFoundation.dll._ZTSN4Poco13SharedLibraryE
    libPocoFoundation.dll._ZTSN4Poco13StreamChannelE
    libPocoFoundation.dll._ZTSN4Poco13TemporaryFileE
    libPocoFoundation.dll._ZTSN4Poco13UTF16EncodingE
    libPocoFoundation.dll._ZTSN4Poco14ActiveRunnableINS_4VoidESsNS_17ArchiveCompressorEEE
    libPocoFoundation.dll._ZTSN4Poco14ConsoleChannelE
    libPocoFoundation.dll._ZTSN4Poco14Latin1EncodingE
    libPocoFoundation.dll._ZTSN4Poco14Latin9EncodingE
    libPocoFoundation.dll._ZTSN4Poco14LogicExceptionE
    libPocoFoundation.dll._ZTSN4Poco14RangeExceptionE
    libPocoFoundation.dll._ZTSN4Poco14RotateStrategyE
    libPocoFoundation.dll._ZTSN4Poco14TeeInputStreamE
    libPocoFoundation.dll._ZTSN4Poco14URIRedirectionE
    libPocoFoundation.dll._ZTSN4Poco15ArchiveStrategyE
    libPocoFoundation.dll._ZTSN4Poco15EventLogChannelE
    libPocoFoundation.dll._ZTSN4Poco15ExistsExceptionE
    libPocoFoundation.dll._ZTSN4Poco15FileInputStreamE
    libPocoFoundation.dll._ZTSN4Poco15NullInputStreamE
    libPocoFoundation.dll._ZTSN4Poco15PipeInputStreamE
    libPocoFoundation.dll._ZTSN4Poco15SignalExceptionE
    libPocoFoundation.dll._ZTSN4Poco15SplitterChannelE
    libPocoFoundation.dll._ZTSN4Poco15StreamTokenizerE
    libPocoFoundation.dll._ZTSN4Poco15SyntaxExceptionE
    libPocoFoundation.dll._ZTSN4Poco15SystemExceptionE
    libPocoFoundation.dll._ZTSN4Poco15TLSAbstractSlotE
    libPocoFoundation.dll._ZTSN4Poco15TeeOutputStreamE
    libPocoFoundation.dll._ZTSN4Poco15WhitespaceTokenE
    libPocoFoundation.dll._ZTSN4Poco16AbstractObserverE
    libPocoFoundation.dll._ZTSN4Poco16ActiveDispatcherE
    libPocoFoundation.dll._ZTSN4Poco16BadCastExceptionE
    libPocoFoundation.dll._ZTSN4Poco16Base64DecoderBufE
    libPocoFoundation.dll._ZTSN4Poco16Base64DecoderIOSE
    libPocoFoundation.dll._ZTSN4Poco16Base64EncoderBufE
    libPocoFoundation.dll._ZTSN4Poco16Base64EncoderIOSE
    libPocoFoundation.dll._ZTSN4Poco16DynamicAnyHolderE
    libPocoFoundation.dll._ZTSN4Poco16FileOutputStreamE
    libPocoFoundation.dll._ZTSN4Poco16HexBinaryDecoderE
    libPocoFoundation.dll._ZTSN4Poco16HexBinaryEncoderE
    libPocoFoundation.dll._ZTSN4Poco16NullOutputStreamE
    libPocoFoundation.dll._ZTSN4Poco16PatternFormatterE
    libPocoFoundation.dll._ZTSN4Poco16PipeOutputStreamE
    libPocoFoundation.dll._ZTSN4Poco16RefCountedObjectE
    libPocoFoundation.dll._ZTSN4Poco16RuntimeExceptionE
    libPocoFoundation.dll._ZTSN4Poco16SharedMemoryImplE
    libPocoFoundation.dll._ZTSN4Poco16TaskNotificationE
    libPocoFoundation.dll._ZTSN4Poco16TimeoutExceptionE
    libPocoFoundation.dll._ZTSN4Poco16URIStreamFactoryE
    libPocoFoundation.dll._ZTSN4Poco17ArchiveCompressorE
    libPocoFoundation.dll._ZTSN4Poco17BugcheckExceptionE
    libPocoFoundation.dll._ZTSN4Poco17CountingStreamBufE
    libPocoFoundation.dll._ZTSN4Poco17DigestInputStreamE
    libPocoFoundation.dll._ZTSN4Poco17FileStreamFactoryE
    libPocoFoundation.dll._ZTSN4Poco17FormattingChannelE
    libPocoFoundation.dll._ZTSN4Poco17MemoryInputStreamE
    libPocoFoundation.dll._ZTSN4Poco17NotFoundExceptionE
    libPocoFoundation.dll._ZTSN4Poco17OpenFileExceptionE
    libPocoFoundation.dll._ZTSN4Poco17ProcessHandleImplE
    libPocoFoundation.dll._ZTSN4Poco17ProtocolExceptionE
    libPocoFoundation.dll._ZTSN4Poco17RandomInputStreamE
    libPocoFoundation.dll._ZTSN4Poco17ReadFileExceptionE
    libPocoFoundation.dll._ZTSN4Poco17SharedLibraryImplE
    libPocoFoundation.dll._ZTSN4Poco17SimpleFileChannelE
    libPocoFoundation.dll._ZTSN4Poco18ActiveResultHolderINS_4VoidEEE
    libPocoFoundation.dll._ZTSN4Poco18ActiveRunnableBaseE
    libPocoFoundation.dll._ZTSN4Poco18DeflatingStreamBufE
    libPocoFoundation.dll._ZTSN4Poco18DigestOutputStreamE
    libPocoFoundation.dll._ZTSN4Poco18InflatingStreamBufE
    libPocoFoundation.dll._ZTSN4Poco18MemoryOutputStreamE
    libPocoFoundation.dll._ZTSN4Poco18NullValueExceptionE
    libPocoFoundation.dll._ZTSN4Poco18PurgeByAgeStrategyE
    libPocoFoundation.dll._ZTSN4Poco18StreamConverterBufE
    libPocoFoundation.dll._ZTSN4Poco18StreamConverterIOSE
    libPocoFoundation.dll._ZTSN4Poco18SynchronizedObjectE
    libPocoFoundation.dll._ZTSN4Poco18UnhandledExceptionE
    libPocoFoundation.dll._ZTSN4Poco18WriteFileExceptionE
    libPocoFoundation.dll._ZTSN4Poco19CountingInputStreamE
    libPocoFoundation.dll._ZTSN4Poco19CreateFileExceptionE
    libPocoFoundation.dll._ZTSN4Poco19DataFormatExceptionE
    libPocoFoundation.dll._ZTSN4Poco19FileExistsExceptionE
    libPocoFoundation.dll._ZTSN4Poco19HexBinaryDecoderBufE
    libPocoFoundation.dll._ZTSN4Poco19HexBinaryDecoderIOSE
    libPocoFoundation.dll._ZTSN4Poco19HexBinaryEncoderBufE
    libPocoFoundation.dll._ZTSN4Poco19HexBinaryEncoderIOSE
    libPocoFoundation.dll._ZTSN4Poco19MessageNotificationE
    libPocoFoundation.dll._ZTSN4Poco19PathSyntaxExceptionE
    libPocoFoundation.dll._ZTSN4Poco19Windows1252EncodingE
    libPocoFoundation.dll._ZTSN4Poco20AbstractInstantiatorINS_7ChannelEEE
    libPocoFoundation.dll._ZTSN4Poco20AbstractInstantiatorINS_9FormatterEEE
    libPocoFoundation.dll._ZTSN4Poco20ApplicationExceptionE
    libPocoFoundation.dll._ZTSN4Poco20BasicMemoryStreamBufIcSt11char_traitsIcEEE
    libPocoFoundation.dll._ZTSN4Poco20CountingOutputStreamE
    libPocoFoundation.dll._ZTSN4Poco20DeflatingInputStreamE
    libPocoFoundation.dll._ZTSN4Poco20DynamicAnyHolderImplISsEE
    libPocoFoundation.dll._ZTSN4Poco20DynamicAnyHolderImplIdEE
    libPocoFoundation.dll._ZTSN4Poco20DynamicAnyHolderImplIiEE
    libPocoFoundation.dll._ZTSN4Poco20DynamicAnyHolderImplIxEE
    libPocoFoundation.dll._ZTSN4Poco20DynamicAnyHolderImplIyEE
    libPocoFoundation.dll._ZTSN4Poco20InflatingInputStreamE
    libPocoFoundation.dll._ZTSN4Poco20InputStreamConverterE
    libPocoFoundation.dll._ZTSN4Poco20LibraryLoadExceptionE
    libPocoFoundation.dll._ZTSN4Poco20NullPointerExceptionE
    libPocoFoundation.dll._ZTSN4Poco20OutOfMemoryExceptionE
    libPocoFoundation.dll._ZTSN4Poco20PurgeByCountStrategyE
    libPocoFoundation.dll._ZTSN4Poco20RotateAtTimeStrategyINS_13LocalDateTimeEEE
    libPocoFoundation.dll._ZTSN4Poco20RotateAtTimeStrategyINS_8DateTimeEEE
    libPocoFoundation.dll._ZTSN4Poco20RotateBySizeStrategyE
    libPocoFoundation.dll._ZTSN4Poco21AbstractTimerCallbackE
    libPocoFoundation.dll._ZTSN4Poco21DeflatingOutputStreamE
    libPocoFoundation.dll._ZTSN4Poco21FileNotFoundExceptionE
    libPocoFoundation.dll._ZTSN4Poco21FileReadOnlyExceptionE
    libPocoFoundation.dll._ZTSN4Poco21IllegalStateExceptionE
    libPocoFoundation.dll._ZTSN4Poco21InflatingOutputStreamE
    libPocoFoundation.dll._ZTSN4Poco21NoPermissionExceptionE
    libPocoFoundation.dll._ZTSN4Poco21OutputStreamConverterE
    libPocoFoundation.dll._ZTSN4Poco21PathNotFoundExceptionE
    libPocoFoundation.dll._ZTSN4Poco21PoolOverflowExceptionE
    libPocoFoundation.dll._ZTSN4Poco21WindowsConsoleChannelE
    libPocoFoundation.dll._ZTSN4Poco22BasicBufferedStreamBufIcSt11char_traitsIcENS_15BufferAllocatorIcEEEE
    libPocoFoundation.dll._ZTSN4Poco22InvalidAccessExceptionE
    libPocoFoundation.dll._ZTSN4Poco22LineEndingConverterIOSE
    libPocoFoundation.dll._ZTSN4Poco22TaskFailedNotificationE
    libPocoFoundation.dll._ZTSN4Poco23ArchiveByNumberStrategyE
    libPocoFoundation.dll._ZTSN4Poco23NotImplementedExceptionE
    libPocoFoundation.dll._ZTSN4Poco23TaskStartedNotificationE
    libPocoFoundation.dll._ZTSN4Poco24BasicUnbufferedStreamBufIcSt11char_traitsIcEEE
    libPocoFoundation.dll._ZTSN4Poco24InputLineEndingConverterE
    libPocoFoundation.dll._ZTSN4Poco24InvalidArgumentExceptionE
    libPocoFoundation.dll._ZTSN4Poco24RotateByIntervalStrategyE
    libPocoFoundation.dll._ZTSN4Poco24TaskFinishedNotificationE
    libPocoFoundation.dll._ZTSN4Poco24TaskProgressNotificationE
    libPocoFoundation.dll._ZTSN4Poco25FileAccessDeniedExceptionE
    libPocoFoundation.dll._ZTSN4Poco25OutputLineEndingConverterE
    libPocoFoundation.dll._ZTSN4Poco25TaskCancelledNotificationE
    libPocoFoundation.dll._ZTSN4Poco25UnknownURISchemeExceptionE
    libPocoFoundation.dll._ZTSN4Poco26ArchiveByTimestampStrategyINS_13LocalDateTimeEEE
    libPocoFoundation.dll._ZTSN4Poco26ArchiveByTimestampStrategyINS_8DateTimeEEE
    libPocoFoundation.dll._ZTSN4Poco26CircularReferenceExceptionE
    libPocoFoundation.dll._ZTSN4Poco26NoThreadAvailableExceptionE
    libPocoFoundation.dll._ZTSN4Poco26RegularExpressionExceptionE
    libPocoFoundation.dll._ZTSN4Poco27AssertionViolationExceptionE
    libPocoFoundation.dll._ZTSN4Poco28LineEndingConverterStreamBufE
    libPocoFoundation.dll._ZTSN4Poco29LibraryAlreadyLoadedExceptionE
    libPocoFoundation.dll._ZTSN4Poco29PropertyNotSupportedExceptionE
    libPocoFoundation.dll._ZTSN4Poco35BasicBufferedBidirectionalStreamBufIcSt11char_traitsIcENS_15BufferAllocatorIcEEEE
    libPocoFoundation.dll._ZTSN4Poco4FileE
    libPocoFoundation.dll._ZTSN4Poco4TaskE
    libPocoFoundation.dll._ZTSN4Poco5TimerE
    libPocoFoundation.dll._ZTSN4Poco5TokenE
    libPocoFoundation.dll._ZTSN4Poco6LogIOSE
    libPocoFoundation.dll._ZTSN4Poco6LoggerE
    libPocoFoundation.dll._ZTSN4Poco6TeeIOSE
    libPocoFoundation.dll._ZTSN4Poco7ChannelE
    libPocoFoundation.dll._ZTSN4Poco7FileIOSE
    libPocoFoundation.dll._ZTSN4Poco7NullIOSE
    libPocoFoundation.dll._ZTSN4Poco7PipeIOSE
    libPocoFoundation.dll._ZTSN4Poco7TLSSlotINS_23NestedDiagnosticContextEEE
    libPocoFoundation.dll._ZTSN4Poco8EOFTokenE
    libPocoFoundation.dll._ZTSN4Poco8FileImplE
    libPocoFoundation.dll._ZTSN4Poco8PipeImplE
    libPocoFoundation.dll._ZTSN4Poco8RunnableE
    libPocoFoundation.dll._ZTSN4Poco9DigestBufE
    libPocoFoundation.dll._ZTSN4Poco9DigestIOSE
    libPocoFoundation.dll._ZTSN4Poco9EventArgsE
    libPocoFoundation.dll._ZTSN4Poco9ExceptionE
    libPocoFoundation.dll._ZTSN4Poco9FormatterE
    libPocoFoundation.dll._ZTSN4Poco9LogStreamE
    libPocoFoundation.dll._ZTSN4Poco9MD4EngineE
    libPocoFoundation.dll._ZTSN4Poco9MD5EngineE
    libPocoFoundation.dll._ZTSN4Poco9MemoryIOSE
    libPocoFoundation.dll._ZTSN4Poco9RandomBufE
    libPocoFoundation.dll._ZTSN4Poco9RandomIOSE
    libPocoFoundation.dll._ZTSSs
    libPocoFoundation.dll._ZTSSt9exception
    libPocoFoundation.dll._ZTTN4Poco10FileStreamE
    libPocoFoundation.dll._ZTTN4Poco11CountingIOSE
    libPocoFoundation.dll._ZTTN4Poco12DeflatingIOSE
    libPocoFoundation.dll._ZTTN4Poco12InflatingIOSE
    libPocoFoundation.dll._ZTTN4Poco13Base64DecoderE
    libPocoFoundation.dll._ZTTN4Poco13Base64EncoderE
    libPocoFoundation.dll._ZTTN4Poco14TeeInputStreamE
    libPocoFoundation.dll._ZTTN4Poco15FileInputStreamE
    libPocoFoundation.dll._ZTTN4Poco15NullInputStreamE
    libPocoFoundation.dll._ZTTN4Poco15PipeInputStreamE
    libPocoFoundation.dll._ZTTN4Poco15TeeOutputStreamE
    libPocoFoundation.dll._ZTTN4Poco16Base64DecoderIOSE
    libPocoFoundation.dll._ZTTN4Poco16Base64EncoderIOSE
    libPocoFoundation.dll._ZTTN4Poco16FileOutputStreamE
    libPocoFoundation.dll._ZTTN4Poco16HexBinaryDecoderE
    libPocoFoundation.dll._ZTTN4Poco16HexBinaryEncoderE
    libPocoFoundation.dll._ZTTN4Poco16NullOutputStreamE
    libPocoFoundation.dll._ZTTN4Poco16PipeOutputStreamE
    libPocoFoundation.dll._ZTTN4Poco17DigestInputStreamE
    libPocoFoundation.dll._ZTTN4Poco17MemoryInputStreamE
    libPocoFoundation.dll._ZTTN4Poco17RandomInputStreamE
    libPocoFoundation.dll._ZTTN4Poco18DigestOutputStreamE
    libPocoFoundation.dll._ZTTN4Poco18MemoryOutputStreamE
    libPocoFoundation.dll._ZTTN4Poco18StreamConverterIOSE
    libPocoFoundation.dll._ZTTN4Poco19CountingInputStreamE
    libPocoFoundation.dll._ZTTN4Poco19HexBinaryDecoderIOSE
    libPocoFoundation.dll._ZTTN4Poco19HexBinaryEncoderIOSE
    libPocoFoundation.dll._ZTTN4Poco20CountingOutputStreamE
    libPocoFoundation.dll._ZTTN4Poco20DeflatingInputStreamE
    libPocoFoundation.dll._ZTTN4Poco20InflatingInputStreamE
    libPocoFoundation.dll._ZTTN4Poco20InputStreamConverterE
    libPocoFoundation.dll._ZTTN4Poco21DeflatingOutputStreamE
    libPocoFoundation.dll._ZTTN4Poco21InflatingOutputStreamE
    libPocoFoundation.dll._ZTTN4Poco21OutputStreamConverterE
    libPocoFoundation.dll._ZTTN4Poco22LineEndingConverterIOSE
    libPocoFoundation.dll._ZTTN4Poco24InputLineEndingConverterE
    libPocoFoundation.dll._ZTTN4Poco25OutputLineEndingConverterE
    libPocoFoundation.dll._ZTTN4Poco6LogIOSE
    libPocoFoundation.dll._ZTTN4Poco6TeeIOSE
    libPocoFoundation.dll._ZTTN4Poco7FileIOSE
    libPocoFoundation.dll._ZTTN4Poco7NullIOSE
    libPocoFoundation.dll._ZTTN4Poco7PipeIOSE
    libPocoFoundation.dll._ZTTN4Poco9DigestIOSE
    libPocoFoundation.dll._ZTTN4Poco9LogStreamE
    libPocoFoundation.dll._ZTTN4Poco9MemoryIOSE
    libPocoFoundation.dll._ZTTN4Poco9RandomIOSE
    libPocoFoundation.dll._ZTVN4Poco10FileStreamE
    libPocoFoundation.dll._ZTVN4Poco10SHA1EngineE
    libPocoFoundation.dll._ZTVN4Poco11CountingIOSE
    libPocoFoundation.dll._ZTVN4Poco11FileChannelE
    libPocoFoundation.dll._ZTVN4Poco11IOExceptionE
    libPocoFoundation.dll._ZTVN4Poco11NullChannelE
    libPocoFoundation.dll._ZTVN4Poco12AsyncChannelE
    libPocoFoundation.dll._ZTVN4Poco12ConfigurableE
    libPocoFoundation.dll._ZTVN4Poco12DeflatingIOSE
    libPocoFoundation.dll._ZTVN4Poco12DigestEngineE
    libPocoFoundation.dll._ZTVN4Poco12ErrorHandlerE
    libPocoFoundation.dll._ZTVN4Poco12InflatingIOSE
    libPocoFoundation.dll._ZTVN4Poco12InstantiatorINS_11FileChannelENS_7ChannelEEE
    libPocoFoundation.dll._ZTVN4Poco12InstantiatorINS_11NullChannelENS_7ChannelEEE
    libPocoFoundation.dll._ZTVN4Poco12InstantiatorINS_12AsyncChannelENS_7ChannelEEE
    libPocoFoundation.dll._ZTVN4Poco12InstantiatorINS_15EventLogChannelENS_7ChannelEEE
    libPocoFoundation.dll._ZTVN4Poco12InstantiatorINS_15SplitterChannelENS_7ChannelEEE
    libPocoFoundation.dll._ZTVN4Poco12InstantiatorINS_16PatternFormatterENS_9FormatterEEE
    libPocoFoundation.dll._ZTVN4Poco12InstantiatorINS_17FormattingChannelENS_7ChannelEEE
    libPocoFoundation.dll._ZTVN4Poco12InstantiatorINS_21WindowsConsoleChannelENS_7ChannelEEE
    libPocoFoundation.dll._ZTVN4Poco12InvalidTokenE
    libPocoFoundation.dll._ZTVN4Poco12LogStreamBufE
    libPocoFoundation.dll._ZTVN4Poco12ManifestBaseE
    libPocoFoundation.dll._ZTVN4Poco12NotificationE
    libPocoFoundation.dll._ZTVN4Poco12PooledThreadE
    libPocoFoundation.dll._ZTVN4Poco12TeeStreamBufE
    libPocoFoundation.dll._ZTVN4Poco12TextEncodingE
    libPocoFoundation.dll._ZTVN4Poco12ThreadTargetE
    libPocoFoundation.dll._ZTVN4Poco12UTF8EncodingE
    libPocoFoundation.dll._ZTVN4Poco13ASCIIEncodingE
    libPocoFoundation.dll._ZTVN4Poco13Base64DecoderE
    libPocoFoundation.dll._ZTVN4Poco13Base64EncoderE
    libPocoFoundation.dll._ZTVN4Poco13DataExceptionE
    libPocoFoundation.dll._ZTVN4Poco13FileExceptionE
    libPocoFoundation.dll._ZTVN4Poco13FileStreamBufE
    libPocoFoundation.dll._ZTVN4Poco13HashStatisticE
    libPocoFoundation.dll._ZTVN4Poco13NullStreamBufE
    libPocoFoundation.dll._ZTVN4Poco13PipeStreamBufE
    libPocoFoundation.dll._ZTVN4Poco13PurgeStrategyE
    libPocoFoundation.dll._ZTVN4Poco13SharedLibraryE
    libPocoFoundation.dll._ZTVN4Poco13StreamChannelE
    libPocoFoundation.dll._ZTVN4Poco13TemporaryFileE
    libPocoFoundation.dll._ZTVN4Poco13UTF16EncodingE
    libPocoFoundation.dll._ZTVN4Poco14ActiveRunnableINS_4VoidESsNS_17ArchiveCompressorEEE
    libPocoFoundation.dll._ZTVN4Poco14ConsoleChannelE
    libPocoFoundation.dll._ZTVN4Poco14Latin1EncodingE
    libPocoFoundation.dll._ZTVN4Poco14Latin9EncodingE
    libPocoFoundation.dll._ZTVN4Poco14LogicExceptionE
    libPocoFoundation.dll._ZTVN4Poco14RangeExceptionE
    libPocoFoundation.dll._ZTVN4Poco14RotateStrategyE
    libPocoFoundation.dll._ZTVN4Poco14TeeInputStreamE
    libPocoFoundation.dll._ZTVN4Poco15ArchiveStrategyE
    libPocoFoundation.dll._ZTVN4Poco15EventLogChannelE
    libPocoFoundation.dll._ZTVN4Poco15ExistsExceptionE
    libPocoFoundation.dll._ZTVN4Poco15FileInputStreamE
    libPocoFoundation.dll._ZTVN4Poco15NullInputStreamE
    libPocoFoundation.dll._ZTVN4Poco15PipeInputStreamE
    libPocoFoundation.dll._ZTVN4Poco15SignalExceptionE
    libPocoFoundation.dll._ZTVN4Poco15SplitterChannelE
    libPocoFoundation.dll._ZTVN4Poco15StreamTokenizerE
    libPocoFoundation.dll._ZTVN4Poco15SyntaxExceptionE
    libPocoFoundation.dll._ZTVN4Poco15SystemExceptionE
    libPocoFoundation.dll._ZTVN4Poco15TLSAbstractSlotE
    libPocoFoundation.dll._ZTVN4Poco15TeeOutputStreamE
    libPocoFoundation.dll._ZTVN4Poco15WhitespaceTokenE
    libPocoFoundation.dll._ZTVN4Poco16AbstractObserverE
    libPocoFoundation.dll._ZTVN4Poco16ActiveDispatcherE
    libPocoFoundation.dll._ZTVN4Poco16BadCastExceptionE
    libPocoFoundation.dll._ZTVN4Poco16Base64DecoderBufE
    libPocoFoundation.dll._ZTVN4Poco16Base64DecoderIOSE
    libPocoFoundation.dll._ZTVN4Poco16Base64EncoderBufE
    libPocoFoundation.dll._ZTVN4Poco16Base64EncoderIOSE
    libPocoFoundation.dll._ZTVN4Poco16DynamicAnyHolderE
    libPocoFoundation.dll._ZTVN4Poco16FileOutputStreamE
    libPocoFoundation.dll._ZTVN4Poco16HexBinaryDecoderE
    libPocoFoundation.dll._ZTVN4Poco16HexBinaryEncoderE
    libPocoFoundation.dll._ZTVN4Poco16NullOutputStreamE
    libPocoFoundation.dll._ZTVN4Poco16PatternFormatterE
    libPocoFoundation.dll._ZTVN4Poco16PipeOutputStreamE
    libPocoFoundation.dll._ZTVN4Poco16RefCountedObjectE
    libPocoFoundation.dll._ZTVN4Poco16RuntimeExceptionE
    libPocoFoundation.dll._ZTVN4Poco16SharedMemoryImplE
    libPocoFoundation.dll._ZTVN4Poco16TaskNotificationE
    libPocoFoundation.dll._ZTVN4Poco16TimeoutExceptionE
    libPocoFoundation.dll._ZTVN4Poco16URIStreamFactoryE
    libPocoFoundation.dll._ZTVN4Poco17ArchiveCompressorE
    libPocoFoundation.dll._ZTVN4Poco17BugcheckExceptionE
    libPocoFoundation.dll._ZTVN4Poco17CountingStreamBufE
    libPocoFoundation.dll._ZTVN4Poco17DigestInputStreamE
    libPocoFoundation.dll._ZTVN4Poco17FileStreamFactoryE
    libPocoFoundation.dll._ZTVN4Poco17FormattingChannelE
    libPocoFoundation.dll._ZTVN4Poco17MemoryInputStreamE
    libPocoFoundation.dll._ZTVN4Poco17NotFoundExceptionE
    libPocoFoundation.dll._ZTVN4Poco17OpenFileExceptionE
    libPocoFoundation.dll._ZTVN4Poco17ProcessHandleImplE
    libPocoFoundation.dll._ZTVN4Poco17ProtocolExceptionE
    libPocoFoundation.dll._ZTVN4Poco17RandomInputStreamE
    libPocoFoundation.dll._ZTVN4Poco17ReadFileExceptionE
    libPocoFoundation.dll._ZTVN4Poco17SimpleFileChannelE
    libPocoFoundation.dll._ZTVN4Poco18ActiveResultHolderINS_4VoidEEE
    libPocoFoundation.dll._ZTVN4Poco18ActiveRunnableBaseE
    libPocoFoundation.dll._ZTVN4Poco18DeflatingStreamBufE
    libPocoFoundation.dll._ZTVN4Poco18DigestOutputStreamE
    libPocoFoundation.dll._ZTVN4Poco18InflatingStreamBufE
    libPocoFoundation.dll._ZTVN4Poco18MemoryOutputStreamE
    libPocoFoundation.dll._ZTVN4Poco18NullValueExceptionE
    libPocoFoundation.dll._ZTVN4Poco18PurgeByAgeStrategyE
    libPocoFoundation.dll._ZTVN4Poco18StreamConverterBufE
    libPocoFoundation.dll._ZTVN4Poco18StreamConverterIOSE
    libPocoFoundation.dll._ZTVN4Poco18SynchronizedObjectE
    libPocoFoundation.dll._ZTVN4Poco18UnhandledExceptionE
    libPocoFoundation.dll._ZTVN4Poco18WriteFileExceptionE
    libPocoFoundation.dll._ZTVN4Poco19CountingInputStreamE
    libPocoFoundation.dll._ZTVN4Poco19CreateFileExceptionE
    libPocoFoundation.dll._ZTVN4Poco19DataFormatExceptionE
    libPocoFoundation.dll._ZTVN4Poco19FileExistsExceptionE
    libPocoFoundation.dll._ZTVN4Poco19HexBinaryDecoderBufE
    libPocoFoundation.dll._ZTVN4Poco19HexBinaryDecoderIOSE
    libPocoFoundation.dll._ZTVN4Poco19HexBinaryEncoderBufE
    libPocoFoundation.dll._ZTVN4Poco19HexBinaryEncoderIOSE
    libPocoFoundation.dll._ZTVN4Poco19MessageNotificationE
    libPocoFoundation.dll._ZTVN4Poco19PathSyntaxExceptionE
    libPocoFoundation.dll._ZTVN4Poco19Windows1252EncodingE
    libPocoFoundation.dll._ZTVN4Poco20AbstractInstantiatorINS_7ChannelEEE
    libPocoFoundation.dll._ZTVN4Poco20AbstractInstantiatorINS_9FormatterEEE
    libPocoFoundation.dll._ZTVN4Poco20ApplicationExceptionE
    libPocoFoundation.dll._ZTVN4Poco20BasicMemoryStreamBufIcSt11char_traitsIcEEE
    libPocoFoundation.dll._ZTVN4Poco20CountingOutputStreamE
    libPocoFoundation.dll._ZTVN4Poco20DeflatingInputStreamE
    libPocoFoundation.dll._ZTVN4Poco20DynamicAnyHolderImplISsEE
    libPocoFoundation.dll._ZTVN4Poco20DynamicAnyHolderImplIdEE
    libPocoFoundation.dll._ZTVN4Poco20DynamicAnyHolderImplIiEE
    libPocoFoundation.dll._ZTVN4Poco20DynamicAnyHolderImplIxEE
    libPocoFoundation.dll._ZTVN4Poco20DynamicAnyHolderImplIyEE
    libPocoFoundation.dll._ZTVN4Poco20InflatingInputStreamE
    libPocoFoundation.dll._ZTVN4Poco20InputStreamConverterE
    libPocoFoundation.dll._ZTVN4Poco20LibraryLoadExceptionE
    libPocoFoundation.dll._ZTVN4Poco20NullPointerExceptionE
    libPocoFoundation.dll._ZTVN4Poco20OutOfMemoryExceptionE
    libPocoFoundation.dll._ZTVN4Poco20PurgeByCountStrategyE
    libPocoFoundation.dll._ZTVN4Poco20RotateAtTimeStrategyINS_13LocalDateTimeEEE
    libPocoFoundation.dll._ZTVN4Poco20RotateAtTimeStrategyINS_8DateTimeEEE
    libPocoFoundation.dll._ZTVN4Poco20RotateBySizeStrategyE
    libPocoFoundation.dll._ZTVN4Poco21AbstractTimerCallbackE
    libPocoFoundation.dll._ZTVN4Poco21DeflatingOutputStreamE
    libPocoFoundation.dll._ZTVN4Poco21FileNotFoundExceptionE
    libPocoFoundation.dll._ZTVN4Poco21FileReadOnlyExceptionE
    libPocoFoundation.dll._ZTVN4Poco21IllegalStateExceptionE
    libPocoFoundation.dll._ZTVN4Poco21InflatingOutputStreamE
    libPocoFoundation.dll._ZTVN4Poco21NoPermissionExceptionE
    libPocoFoundation.dll._ZTVN4Poco21OutputStreamConverterE
    libPocoFoundation.dll._ZTVN4Poco21PathNotFoundExceptionE
    libPocoFoundation.dll._ZTVN4Poco21PoolOverflowExceptionE
    libPocoFoundation.dll._ZTVN4Poco21WindowsConsoleChannelE
    libPocoFoundation.dll._ZTVN4Poco22BasicBufferedStreamBufIcSt11char_traitsIcENS_15BufferAllocatorIcEEEE
    libPocoFoundation.dll._ZTVN4Poco22InvalidAccessExceptionE
    libPocoFoundation.dll._ZTVN4Poco22LineEndingConverterIOSE
    libPocoFoundation.dll._ZTVN4Poco22TaskFailedNotificationE
    libPocoFoundation.dll._ZTVN4Poco23ArchiveByNumberStrategyE
    libPocoFoundation.dll._ZTVN4Poco23NotImplementedExceptionE
    libPocoFoundation.dll._ZTVN4Poco23TaskStartedNotificationE
    libPocoFoundation.dll._ZTVN4Poco24BasicUnbufferedStreamBufIcSt11char_traitsIcEEE
    libPocoFoundation.dll._ZTVN4Poco24InputLineEndingConverterE
    libPocoFoundation.dll._ZTVN4Poco24InvalidArgumentExceptionE
    libPocoFoundation.dll._ZTVN4Poco24RotateByIntervalStrategyE
    libPocoFoundation.dll._ZTVN4Poco24TaskFinishedNotificationE
    libPocoFoundation.dll._ZTVN4Poco24TaskProgressNotificationE
    libPocoFoundation.dll._ZTVN4Poco25FileAccessDeniedExceptionE
    libPocoFoundation.dll._ZTVN4Poco25OutputLineEndingConverterE
    libPocoFoundation.dll._ZTVN4Poco25TaskCancelledNotificationE
    libPocoFoundation.dll._ZTVN4Poco25UnknownURISchemeExceptionE
    libPocoFoundation.dll._ZTVN4Poco26ArchiveByTimestampStrategyINS_13LocalDateTimeEEE
    libPocoFoundation.dll._ZTVN4Poco26ArchiveByTimestampStrategyINS_8DateTimeEEE
    libPocoFoundation.dll._ZTVN4Poco26CircularReferenceExceptionE
    libPocoFoundation.dll._ZTVN4Poco26NoThreadAvailableExceptionE
    libPocoFoundation.dll._ZTVN4Poco26RegularExpressionExceptionE
    libPocoFoundation.dll._ZTVN4Poco27AssertionViolationExceptionE
    libPocoFoundation.dll._ZTVN4Poco28LineEndingConverterStreamBufE
    libPocoFoundation.dll._ZTVN4Poco29LibraryAlreadyLoadedExceptionE
    libPocoFoundation.dll._ZTVN4Poco29PropertyNotSupportedExceptionE
    libPocoFoundation.dll._ZTVN4Poco35BasicBufferedBidirectionalStreamBufIcSt11char_traitsIcENS_15BufferAllocatorIcEEEE
    libPocoFoundation.dll._ZTVN4Poco4FileE
    libPocoFoundation.dll._ZTVN4Poco4TaskE
    libPocoFoundation.dll._ZTVN4Poco5TimerE
    libPocoFoundation.dll._ZTVN4Poco5TokenE
    libPocoFoundation.dll._ZTVN4Poco6LogIOSE
    libPocoFoundation.dll._ZTVN4Poco6LoggerE
    libPocoFoundation.dll._ZTVN4Poco6TeeIOSE
    libPocoFoundation.dll._ZTVN4Poco7ChannelE
    libPocoFoundation.dll._ZTVN4Poco7FileIOSE
    libPocoFoundation.dll._ZTVN4Poco7NullIOSE
    libPocoFoundation.dll._ZTVN4Poco7PipeIOSE
    libPocoFoundation.dll._ZTVN4Poco7TLSSlotINS_23NestedDiagnosticContextEEE
    libPocoFoundation.dll._ZTVN4Poco8EOFTokenE
    libPocoFoundation.dll._ZTVN4Poco8FileImplE
    libPocoFoundation.dll._ZTVN4Poco8PipeImplE
    libPocoFoundation.dll._ZTVN4Poco8RunnableE
    libPocoFoundation.dll._ZTVN4Poco9DigestBufE
    libPocoFoundation.dll._ZTVN4Poco9DigestIOSE
    libPocoFoundation.dll._ZTVN4Poco9EventArgsE
    libPocoFoundation.dll._ZTVN4Poco9ExceptionE
    libPocoFoundation.dll._ZTVN4Poco9FormatterE
    libPocoFoundation.dll._ZTVN4Poco9LogStreamE
    libPocoFoundation.dll._ZTVN4Poco9MD4EngineE
    libPocoFoundation.dll._ZTVN4Poco9MD5EngineE
    libPocoFoundation.dll._ZTVN4Poco9MemoryIOSE
    libPocoFoundation.dll._ZTVN4Poco9RandomBufE
    libPocoFoundation.dll._ZTVN4Poco9RandomIOSE
    libPocoFoundation.dll._ZThn120_N4Poco20DeflatingInputStreamD0Ev
    libPocoFoundation.dll._ZThn120_N4Poco20DeflatingInputStreamD1Ev
    libPocoFoundation.dll._ZThn120_N4Poco20InflatingInputStreamD0Ev
    libPocoFoundation.dll._ZThn120_N4Poco20InflatingInputStreamD1Ev
    libPocoFoundation.dll._ZThn120_N4Poco21DeflatingOutputStreamD0Ev
    libPocoFoundation.dll._ZThn120_N4Poco21DeflatingOutputStreamD1Ev
    libPocoFoundation.dll._ZThn120_N4Poco21InflatingOutputStreamD0Ev
    libPocoFoundation.dll._ZThn120_N4Poco21InflatingOutputStreamD1Ev
    libPocoFoundation.dll._ZThn12_N4Poco12AsyncChannel3runEv
    libPocoFoundation.dll._ZThn12_N4Poco12AsyncChannelD0Ev
    libPocoFoundation.dll._ZThn12_N4Poco12AsyncChannelD1Ev
    libPocoFoundation.dll._ZThn44_N4Poco15NullInputStreamD0Ev
    libPocoFoundation.dll._ZThn44_N4Poco15NullInputStreamD1Ev
    libPocoFoundation.dll._ZThn44_N4Poco16NullOutputStreamD0Ev
    libPocoFoundation.dll._ZThn44_N4Poco16NullOutputStreamD1Ev
    libPocoFoundation.dll._ZThn44_N4Poco17MemoryInputStreamD0Ev
    libPocoFoundation.dll._ZThn44_N4Poco17MemoryInputStreamD1Ev
    libPocoFoundation.dll._ZThn44_N4Poco18MemoryOutputStreamD0Ev
    libPocoFoundation.dll._ZThn44_N4Poco18MemoryOutputStreamD1Ev
    libPocoFoundation.dll._ZThn48_N4Poco16HexBinaryDecoderD0Ev
    libPocoFoundation.dll._ZThn48_N4Poco16HexBinaryDecoderD1Ev
    libPocoFoundation.dll._ZThn48_N4Poco17RandomInputStreamD0Ev
    libPocoFoundation.dll._ZThn48_N4Poco17RandomInputStreamD1Ev
    libPocoFoundation.dll._ZThn4_N4Poco11FileChannelD0Ev
    libPocoFoundation.dll._ZThn4_N4Poco11FileChannelD1Ev
    libPocoFoundation.dll._ZThn4_N4Poco11NullChannelD0Ev
    libPocoFoundation.dll._ZThn4_N4Poco11NullChannelD1Ev
    libPocoFoundation.dll._ZThn4_N4Poco12AsyncChannelD0Ev
    libPocoFoundation.dll._ZThn4_N4Poco12AsyncChannelD1Ev
    libPocoFoundation.dll._ZThn4_N4Poco13StreamChannelD0Ev
    libPocoFoundation.dll._ZThn4_N4Poco13StreamChannelD1Ev
    libPocoFoundation.dll._ZThn4_N4Poco14ActiveRunnableINS_4VoidESsNS_17ArchiveCompressorEED0Ev
    libPocoFoundation.dll._ZThn4_N4Poco14ActiveRunnableINS_4VoidESsNS_17ArchiveCompressorEED1Ev
    libPocoFoundation.dll._ZThn4_N4Poco14ConsoleChannelD0Ev
    libPocoFoundation.dll._ZThn4_N4Poco14ConsoleChannelD1Ev
    libPocoFoundation.dll._ZThn4_N4Poco15EventLogChannelD0Ev
    libPocoFoundation.dll._ZThn4_N4Poco15EventLogChannelD1Ev
    libPocoFoundation.dll._ZThn4_N4Poco15SplitterChannelD0Ev
    libPocoFoundation.dll._ZThn4_N4Poco15SplitterChannelD1Ev
    libPocoFoundation.dll._ZThn4_N4Poco16PatternFormatterD0Ev
    libPocoFoundation.dll._ZThn4_N4Poco16PatternFormatterD1Ev
    libPocoFoundation.dll._ZThn4_N4Poco17FormattingChannelD0Ev
    libPocoFoundation.dll._ZThn4_N4Poco17FormattingChannelD1Ev
    libPocoFoundation.dll._ZThn4_N4Poco17SimpleFileChannelD0Ev
    libPocoFoundation.dll._ZThn4_N4Poco17SimpleFileChannelD1Ev
    libPocoFoundation.dll._ZThn4_N4Poco18ActiveRunnableBaseD0Ev
    libPocoFoundation.dll._ZThn4_N4Poco18ActiveRunnableBaseD1Ev
    libPocoFoundation.dll._ZThn4_N4Poco21WindowsConsoleChannelD0Ev
    libPocoFoundation.dll._ZThn4_N4Poco21WindowsConsoleChannelD1Ev
    libPocoFoundation.dll._ZThn4_N4Poco4TaskD0Ev
    libPocoFoundation.dll._ZThn4_N4Poco4TaskD1Ev
    libPocoFoundation.dll._ZThn4_N4Poco6LoggerD0Ev
    libPocoFoundation.dll._ZThn4_N4Poco6LoggerD1Ev
    libPocoFoundation.dll._ZThn4_N4Poco7ChannelD0Ev
    libPocoFoundation.dll._ZThn4_N4Poco7ChannelD1Ev
    libPocoFoundation.dll._ZThn4_N4Poco9FormatterD0Ev
    libPocoFoundation.dll._ZThn4_N4Poco9FormatterD1Ev
    libPocoFoundation.dll._ZThn52_N4Poco15PipeInputStreamD0Ev
    libPocoFoundation.dll._ZThn52_N4Poco15PipeInputStreamD1Ev
    libPocoFoundation.dll._ZThn52_N4Poco16PipeOutputStreamD0Ev
    libPocoFoundation.dll._ZThn52_N4Poco16PipeOutputStreamD1Ev
    libPocoFoundation.dll._ZThn56_N4Poco13Base64DecoderD0Ev
    libPocoFoundation.dll._ZThn56_N4Poco13Base64DecoderD1Ev
    libPocoFoundation.dll._ZThn56_N4Poco9LogStreamD0Ev
    libPocoFoundation.dll._ZThn56_N4Poco9LogStreamD1Ev
    libPocoFoundation.dll._ZThn60_N4Poco13Base64EncoderD0Ev
    libPocoFoundation.dll._ZThn60_N4Poco13Base64EncoderD1Ev
    libPocoFoundation.dll._ZThn60_N4Poco14TeeInputStreamD0Ev
    libPocoFoundation.dll._ZThn60_N4Poco14TeeInputStreamD1Ev
    libPocoFoundation.dll._ZThn60_N4Poco15TeeOutputStreamD0Ev
    libPocoFoundation.dll._ZThn60_N4Poco15TeeOutputStreamD1Ev
    libPocoFoundation.dll._ZThn60_N4Poco16HexBinaryEncoderD0Ev
    libPocoFoundation.dll._ZThn60_N4Poco16HexBinaryEncoderD1Ev
    libPocoFoundation.dll._ZThn60_N4Poco17DigestInputStreamD0Ev
    libPocoFoundation.dll._ZThn60_N4Poco17DigestInputStreamD1Ev
    libPocoFoundation.dll._ZThn60_N4Poco18DigestOutputStreamD0Ev
    libPocoFoundation.dll._ZThn60_N4Poco18DigestOutputStreamD1Ev
    libPocoFoundation.dll._ZThn64_N4Poco19CountingInputStreamD0Ev
    libPocoFoundation.dll._ZThn64_N4Poco19CountingInputStreamD1Ev
    libPocoFoundation.dll._ZThn64_N4Poco20CountingOutputStreamD0Ev
    libPocoFoundation.dll._ZThn64_N4Poco20CountingOutputStreamD1Ev
    libPocoFoundation.dll._ZThn64_N4Poco24InputLineEndingConverterD0Ev
    libPocoFoundation.dll._ZThn64_N4Poco24InputLineEndingConverterD1Ev
    libPocoFoundation.dll._ZThn64_N4Poco25OutputLineEndingConverterD0Ev
    libPocoFoundation.dll._ZThn64_N4Poco25OutputLineEndingConverterD1Ev
    libPocoFoundation.dll._ZThn76_N4Poco10FileStreamD0Ev
    libPocoFoundation.dll._ZThn76_N4Poco10FileStreamD1Ev
    libPocoFoundation.dll._ZThn76_N4Poco15FileInputStreamD0Ev
    libPocoFoundation.dll._ZThn76_N4Poco15FileInputStreamD1Ev
    libPocoFoundation.dll._ZThn76_N4Poco16FileOutputStreamD0Ev
    libPocoFoundation.dll._ZThn76_N4Poco16FileOutputStreamD1Ev
    libPocoFoundation.dll._ZThn84_N4Poco10FileStreamD0Ev
    libPocoFoundation.dll._ZThn84_N4Poco10FileStreamD1Ev
    libPocoFoundation.dll._ZThn84_N4Poco20InputStreamConverterD0Ev
    libPocoFoundation.dll._ZThn84_N4Poco20InputStreamConverterD1Ev
    libPocoFoundation.dll._ZThn84_N4Poco21OutputStreamConverterD0Ev
    libPocoFoundation.dll._ZThn84_N4Poco21OutputStreamConverterD1Ev
    libPocoFoundation.dll._ZTv0_n12_N4Poco10FileStreamD0Ev
    libPocoFoundation.dll._ZTv0_n12_N4Poco10FileStreamD1Ev
    libPocoFoundation.dll._ZTv0_n12_N4Poco11CountingIOSD0Ev
    libPocoFoundation.dll._ZTv0_n12_N4Poco11CountingIOSD1Ev
    libPocoFoundation.dll._ZTv0_n12_N4Poco12DeflatingIOSD0Ev
    libPocoFoundation.dll._ZTv0_n12_N4Poco12DeflatingIOSD1Ev
    libPocoFoundation.dll._ZTv0_n12_N4Poco12InflatingIOSD0Ev
    libPocoFoundation.dll._ZTv0_n12_N4Poco12InflatingIOSD1Ev
    libPocoFoundation.dll._ZTv0_n12_N4Poco13Base64DecoderD0Ev
    libPocoFoundation.dll._ZTv0_n12_N4Poco13Base64DecoderD1Ev
    libPocoFoundation.dll._ZTv0_n12_N4Poco13Base64EncoderD0Ev
    libPocoFoundation.dll._ZTv0_n12_N4Poco13Base64EncoderD1Ev
    libPocoFoundation.dll._ZTv0_n12_N4Poco14TeeInputStreamD0Ev
    libPocoFoundation.dll._ZTv0_n12_N4Poco14TeeInputStreamD1Ev
    libPocoFoundation.dll._ZTv0_n12_N4Poco15FileInputStreamD0Ev
    libPocoFoundation.dll._ZTv0_n12_N4Poco15FileInputStreamD1Ev
    libPocoFoundation.dll._ZTv0_n12_N4Poco15NullInputStreamD0Ev
    libPocoFoundation.dll._ZTv0_n12_N4Poco15NullInputStreamD1Ev
    libPocoFoundation.dll._ZTv0_n12_N4Poco15PipeInputStreamD0Ev
    libPocoFoundation.dll._ZTv0_n12_N4Poco15PipeInputStreamD1Ev
    libPocoFoundation.dll._ZTv0_n12_N4Poco15TeeOutputStreamD0Ev
    libPocoFoundation.dll._ZTv0_n12_N4Poco15TeeOutputStreamD1Ev
    libPocoFoundation.dll._ZTv0_n12_N4Poco16Base64DecoderIOSD0Ev
    libPocoFoundation.dll._ZTv0_n12_N4Poco16Base64DecoderIOSD1Ev
    libPocoFoundation.dll._ZTv0_n12_N4Poco16Base64EncoderIOSD0Ev
    libPocoFoundation.dll._ZTv0_n12_N4Poco16Base64EncoderIOSD1Ev
    libPocoFoundation.dll._ZTv0_n12_N4Poco16FileOutputStreamD0Ev
    libPocoFoundation.dll._ZTv0_n12_N4Poco16FileOutputStreamD1Ev
    libPocoFoundation.dll._ZTv0_n12_N4Poco16HexBinaryDecoderD0Ev
    libPocoFoundation.dll._ZTv0_n12_N4Poco16HexBinaryDecoderD1Ev
    libPocoFoundation.dll._ZTv0_n12_N4Poco16HexBinaryEncoderD0Ev
    libPocoFoundation.dll._ZTv0_n12_N4Poco16HexBinaryEncoderD1Ev
    libPocoFoundation.dll._ZTv0_n12_N4Poco16NullOutputStreamD0Ev
    libPocoFoundation.dll._ZTv0_n12_N4Poco16NullOutputStreamD1Ev
    libPocoFoundation.dll._ZTv0_n12_N4Poco16PipeOutputStreamD0Ev
    libPocoFoundation.dll._ZTv0_n12_N4Poco16PipeOutputStreamD1Ev
    libPocoFoundation.dll._ZTv0_n12_N4Poco17DigestInputStreamD0Ev
    libPocoFoundation.dll._ZTv0_n12_N4Poco17DigestInputStreamD1Ev
    libPocoFoundation.dll._ZTv0_n12_N4Poco17MemoryInputStreamD0Ev
    libPocoFoundation.dll._ZTv0_n12_N4Poco17MemoryInputStreamD1Ev
    libPocoFoundation.dll._ZTv0_n12_N4Poco17RandomInputStreamD0Ev
    libPocoFoundation.dll._ZTv0_n12_N4Poco17RandomInputStreamD1Ev
    libPocoFoundation.dll._ZTv0_n12_N4Poco18DigestOutputStreamD0Ev
    libPocoFoundation.dll._ZTv0_n12_N4Poco18DigestOutputStreamD1Ev
    libPocoFoundation.dll._ZTv0_n12_N4Poco18MemoryOutputStreamD0Ev
    libPocoFoundation.dll._ZTv0_n12_N4Poco18MemoryOutputStreamD1Ev
    libPocoFoundation.dll._ZTv0_n12_N4Poco18StreamConverterIOSD0Ev
    libPocoFoundation.dll._ZTv0_n12_N4Poco18StreamConverterIOSD1Ev
    libPocoFoundation.dll._ZTv0_n12_N4Poco19CountingInputStreamD0Ev
    libPocoFoundation.dll._ZTv0_n12_N4Poco19CountingInputStreamD1Ev
    libPocoFoundation.dll._ZTv0_n12_N4Poco19HexBinaryDecoderIOSD0Ev
    libPocoFoundation.dll._ZTv0_n12_N4Poco19HexBinaryDecoderIOSD1Ev
    libPocoFoundation.dll._ZTv0_n12_N4Poco19HexBinaryEncoderIOSD0Ev
    libPocoFoundation.dll._ZTv0_n12_N4Poco19HexBinaryEncoderIOSD1Ev
    libPocoFoundation.dll._ZTv0_n12_N4Poco20CountingOutputStreamD0Ev
    libPocoFoundation.dll._ZTv0_n12_N4Poco20CountingOutputStreamD1Ev
    libPocoFoundation.dll._ZTv0_n12_N4Poco20DeflatingInputStreamD0Ev
    libPocoFoundation.dll._ZTv0_n12_N4Poco20DeflatingInputStreamD1Ev
    libPocoFoundation.dll._ZTv0_n12_N4Poco20InflatingInputStreamD0Ev
    libPocoFoundation.dll._ZTv0_n12_N4Poco20InflatingInputStreamD1Ev
    libPocoFoundation.dll._ZTv0_n12_N4Poco20InputStreamConverterD0Ev
    libPocoFoundation.dll._ZTv0_n12_N4Poco20InputStreamConverterD1Ev
    libPocoFoundation.dll._ZTv0_n12_N4Poco21DeflatingOutputStreamD0Ev
    libPocoFoundation.dll._ZTv0_n12_N4Poco21DeflatingOutputStreamD1Ev
    libPocoFoundation.dll._ZTv0_n12_N4Poco21InflatingOutputStreamD0Ev
    libPocoFoundation.dll._ZTv0_n12_N4Poco21InflatingOutputStreamD1Ev
    libPocoFoundation.dll._ZTv0_n12_N4Poco21OutputStreamConverterD0Ev
    libPocoFoundation.dll._ZTv0_n12_N4Poco21OutputStreamConverterD1Ev
    libPocoFoundation.dll._ZTv0_n12_N4Poco22LineEndingConverterIOSD0Ev
    libPocoFoundation.dll._ZTv0_n12_N4Poco22LineEndingConverterIOSD1Ev
    libPocoFoundation.dll._ZTv0_n12_N4Poco24InputLineEndingConverterD0Ev
    libPocoFoundation.dll._ZTv0_n12_N4Poco24InputLineEndingConverterD1Ev
    libPocoFoundation.dll._ZTv0_n12_N4Poco25OutputLineEndingConverterD0Ev
    libPocoFoundation.dll._ZTv0_n12_N4Poco25OutputLineEndingConverterD1Ev
    libPocoFoundation.dll._ZTv0_n12_N4Poco6LogIOSD0Ev
    libPocoFoundation.dll._ZTv0_n12_N4Poco6LogIOSD1Ev
    libPocoFoundation.dll._ZTv0_n12_N4Poco6TeeIOSD0Ev
    libPocoFoundation.dll._ZTv0_n12_N4Poco6TeeIOSD1Ev
    libPocoFoundation.dll._ZTv0_n12_N4Poco7FileIOSD0Ev
    libPocoFoundation.dll._ZTv0_n12_N4Poco7FileIOSD1Ev
    libPocoFoundation.dll._ZTv0_n12_N4Poco7NullIOSD0Ev
    libPocoFoundation.dll._ZTv0_n12_N4Poco7NullIOSD1Ev
    libPocoFoundation.dll._ZTv0_n12_N4Poco7PipeIOSD0Ev
    libPocoFoundation.dll._ZTv0_n12_N4Poco7PipeIOSD1Ev
    libPocoFoundation.dll._ZTv0_n12_N4Poco9DigestIOSD0Ev
    libPocoFoundation.dll._ZTv0_n12_N4Poco9DigestIOSD1Ev
    libPocoFoundation.dll._ZTv0_n12_N4Poco9LogStreamD0Ev
    libPocoFoundation.dll._ZTv0_n12_N4Poco9LogStreamD1Ev
    libPocoFoundation.dll._ZTv0_n12_N4Poco9MemoryIOSD0Ev
    libPocoFoundation.dll._ZTv0_n12_N4Poco9MemoryIOSD1Ev
    libPocoFoundation.dll._ZTv0_n12_N4Poco9RandomIOSD0Ev
    libPocoFoundation.dll._ZTv0_n12_N4Poco9RandomIOSD1Ev
    libPocoFoundation.dll._ZZNK4Poco20DynamicAnyHolderImplISsE7convertERbE12VAL_INTFALSE
    libPocoFoundation.dll._ZZNK4Poco20DynamicAnyHolderImplISsE7convertERbE9VAL_FALSE
    libPocoFoundation.dll._dist_code
    libPocoFoundation.dll._length_code
    libPocoFoundation.dll._pcre_OP_lengths
    libPocoFoundation.dll._pcre_default_tables
    libPocoFoundation.dll._pcre_is_newline
    libPocoFoundation.dll._pcre_ord2utf8
    libPocoFoundation.dll._pcre_try_flipped
    libPocoFoundation.dll._pcre_ucd_records
    libPocoFoundation.dll._pcre_ucd_stage1
    libPocoFoundation.dll._pcre_ucd_stage2
    libPocoFoundation.dll._pcre_ucp_gentype
    libPocoFoundation.dll._pcre_utf8_table1
    libPocoFoundation.dll._pcre_utf8_table1_size
    libPocoFoundation.dll._pcre_utf8_table2
    libPocoFoundation.dll._pcre_utf8_table3
    libPocoFoundation.dll._pcre_utf8_table4
    libPocoFoundation.dll._pcre_utt
    libPocoFoundation.dll._pcre_utt_names
    libPocoFoundation.dll._pcre_utt_size
    libPocoFoundation.dll._pcre_valid_utf8
    libPocoFoundation.dll._pcre_was_newline
    libPocoFoundation.dll._pcre_xclass
    libPocoFoundation.dll._tr_align
    libPocoFoundation.dll._tr_flush_block
    libPocoFoundation.dll._tr_init
    libPocoFoundation.dll._tr_stored_block
    libPocoFoundation.dll._tr_tally
    libPocoFoundation.dll.adler32
    libPocoFoundation.dll.adler32_combine
    libPocoFoundation.dll.adler32_combine64
    libPocoFoundation.dll.compress
    libPocoFoundation.dll.compress2
    libPocoFoundation.dll.compressBound
    libPocoFoundation.dll.crc32
    libPocoFoundation.dll.crc32_combine
    libPocoFoundation.dll.crc32_combine64
    libPocoFoundation.dll.deflate
    libPocoFoundation.dll.deflateBound
    libPocoFoundation.dll.deflateCopy
    libPocoFoundation.dll.deflateEnd
    libPocoFoundation.dll.deflateInit2_
    libPocoFoundation.dll.deflateInit_
    libPocoFoundation.dll.deflateParams
    libPocoFoundation.dll.deflatePrime
    libPocoFoundation.dll.deflateReset
    libPocoFoundation.dll.deflateSetDictionary
    libPocoFoundation.dll.deflateSetHeader
    libPocoFoundation.dll.deflateTune
    libPocoFoundation.dll.deflate_copyright
    libPocoFoundation.dll.get_crc_table
    libPocoFoundation.dll.inflate
    libPocoFoundation.dll.inflateBack
    libPocoFoundation.dll.inflateBackEnd
    libPocoFoundation.dll.inflateBackInit_
    libPocoFoundation.dll.inflateCopy
    libPocoFoundation.dll.inflateEnd
    libPocoFoundation.dll.inflateGetHeader
    libPocoFoundation.dll.inflateInit2_
    libPocoFoundation.dll.inflateInit_
    libPocoFoundation.dll.inflateMark
    libPocoFoundation.dll.inflatePrime
    libPocoFoundation.dll.inflateReset
    libPocoFoundation.dll.inflateReset2
    libPocoFoundation.dll.inflateSetDictionary
    libPocoFoundation.dll.inflateSync
    libPocoFoundation.dll.inflateSyncPoint
    libPocoFoundation.dll.inflateUndermine
    libPocoFoundation.dll.inflate_copyright
    libPocoFoundation.dll.inflate_fast
    libPocoFoundation.dll.inflate_table
    libPocoFoundation.dll.pcre_callout
    libPocoFoundation.dll.pcre_compile
    libPocoFoundation.dll.pcre_compile2
    libPocoFoundation.dll.pcre_exec
    libPocoFoundation.dll.pcre_free
    libPocoFoundation.dll.pcre_fullinfo
    libPocoFoundation.dll.pcre_maketables
    libPocoFoundation.dll.pcre_malloc
    libPocoFoundation.dll.pcre_stack_free
    libPocoFoundation.dll.pcre_stack_malloc
    libPocoFoundation.dll.pcre_study
    libPocoFoundation.dll.zError
    libPocoFoundation.dll.z_errmsg
    libPocoFoundation.dll.zcalloc
    libPocoFoundation.dll.zcfree
    libPocoFoundation.dll.zlibCompileFlags
    libPocoFoundation.dll.zlibVersion
